(lp1
(I673
I1
I2
tp2
a(I673
I1
I3
tp3
a(I674
I2
I4
tp4
a(I674
I2
I5
tp5
a(I675
I3
I6
tp6
a(I675
I3
I7
tp7
a(I676
I4
I8
tp8
a(I676
I4
I9
tp9
a(I677
I5
I10
tp10
a(I677
I5
I11
tp11
a(I678
I6
I12
tp12
a(I678
I6
I13
tp13
a(I679
I7
I14
tp14
a(I679
I7
I15
tp15
a(I680
I8
I16
tp16
a(I680
I8
I17
tp17
a(I681
I9
I18
tp18
a(I681
I9
I19
tp19
a(I682
I10
I20
tp20
a(I682
I10
I21
tp21
a(I683
I11
I22
tp22
a(I683
I11
I23
tp23
a(I684
I12
I24
tp24
a(I684
I12
I25
tp25
a(I685
I13
I26
tp26
a(I685
I13
I27
tp27
a(I686
I14
I28
tp28
a(I686
I14
I29
tp29
a(I687
I15
I30
tp30
a(I687
I15
I31
tp31
a(I688
I16
I32
tp32
a(I688
I16
I33
tp33
a(I689
I17
I34
tp34
a(I689
I17
I35
tp35
a(I690
I18
I36
tp36
a(I690
I18
I37
tp37
a(I691
I19
I38
tp38
a(I691
I19
I39
tp39
a(I692
I20
I40
tp40
a(I692
I20
I41
tp41
a(I693
I21
I42
tp42
a(I693
I21
I43
tp43
a(I694
I22
I44
tp44
a(I694
I22
I45
tp45
a(I695
I23
I46
tp46
a(I695
I23
I47
tp47
a(I696
I24
I48
tp48
a(I696
I24
I49
tp49
a(I697
I25
I50
tp50
a(I697
I25
I51
tp51
a(I698
I26
I52
tp52
a(I698
I26
I53
tp53
a(I699
I27
I54
tp54
a(I699
I27
I55
tp55
a(I700
I28
I56
tp56
a(I700
I28
I57
tp57
a(I701
I29
I58
tp58
a(I701
I29
I59
tp59
a(I702
I30
I60
tp60
a(I702
I30
I61
tp61
a(I703
I31
I62
tp62
a(I703
I31
I63
tp63
a(I704
I32
I64
tp64
a(I704
I32
I65
tp65
a(I705
I33
I66
tp66
a(I705
I33
I67
tp67
a(I706
I34
I68
tp68
a(I706
I34
I69
tp69
a(I707
I35
I70
tp70
a(I707
I35
I71
tp71
a(I708
I36
I72
tp72
a(I708
I36
I73
tp73
a(I709
I37
I74
tp74
a(I709
I37
I75
tp75
a(I710
I38
I76
tp76
a(I710
I38
I77
tp77
a(I711
I39
I78
tp78
a(I711
I39
I79
tp79
a(I712
I40
I80
tp80
a(I712
I40
I81
tp81
a(I713
I41
I82
tp82
a(I713
I41
I83
tp83
a(I714
I42
I84
tp84
a(I714
I42
I85
tp85
a(I715
I43
I86
tp86
a(I715
I43
I87
tp87
a(I716
I44
I88
tp88
a(I716
I44
I89
tp89
a(I717
I45
I90
tp90
a(I717
I45
I91
tp91
a(I718
I46
I92
tp92
a(I718
I46
I93
tp93
a(I719
I47
I94
tp94
a(I719
I47
I95
tp95
a(I720
I48
I96
tp96
a(I720
I48
I97
tp97
a(I721
I49
I98
tp98
a(I721
I49
I99
tp99
a(I722
I50
I100
tp100
a(I722
I50
I101
tp101
a(I723
I51
I102
tp102
a(I723
I51
I103
tp103
a(I724
I52
I104
tp104
a(I724
I52
I105
tp105
a(I725
I53
I106
tp106
a(I725
I53
I107
tp107
a(I726
I54
I108
tp108
a(I726
I54
I109
tp109
a(I727
I55
I110
tp110
a(I727
I55
I111
tp111
a(I728
I56
I112
tp112
a(I728
I56
I113
tp113
a(I729
I57
I114
tp114
a(I729
I57
I115
tp115
a(I730
I58
I116
tp116
a(I730
I58
I117
tp117
a(I731
I59
I118
tp118
a(I731
I59
I119
tp119
a(I732
I60
I120
tp120
a(I732
I60
I121
tp121
a(I733
I61
I122
tp122
a(I733
I61
I123
tp123
a(I734
I62
I124
tp124
a(I734
I62
I125
tp125
a(I735
I63
I126
tp126
a(I735
I63
I127
tp127
a(I736
I64
I128
tp128
a(I736
I64
I129
tp129
a(I737
I65
I130
tp130
a(I737
I65
I131
tp131
a(I738
I66
I132
tp132
a(I738
I66
I133
tp133
a(I739
I67
I134
tp134
a(I739
I67
I135
tp135
a(I740
I68
I136
tp136
a(I740
I68
I137
tp137
a(I741
I69
I138
tp138
a(I741
I69
I139
tp139
a(I742
I70
I140
tp140
a(I742
I70
I141
tp141
a(I743
I71
I142
tp142
a(I743
I71
I143
tp143
a(I744
I72
I144
tp144
a(I744
I72
I145
tp145
a(I745
I73
I146
tp146
a(I745
I73
I147
tp147
a(I746
I74
I148
tp148
a(I746
I74
I149
tp149
a(I747
I75
I150
tp150
a(I747
I75
I151
tp151
a(I748
I76
I152
tp152
a(I748
I76
I153
tp153
a(I749
I77
I154
tp154
a(I749
I77
I155
tp155
a(I750
I78
I156
tp156
a(I750
I78
I157
tp157
a(I751
I79
I158
tp158
a(I751
I79
I159
tp159
a(I752
I80
I160
tp160
a(I752
I80
I161
tp161
a(I753
I81
I162
tp162
a(I753
I81
I163
tp163
a(I754
I82
I164
tp164
a(I754
I82
I165
tp165
a(I755
I83
I166
tp166
a(I755
I83
I167
tp167
a(I756
I84
I168
tp168
a(I756
I84
I169
tp169
a(I757
I85
I170
tp170
a(I757
I85
I171
tp171
a(I758
I86
I172
tp172
a(I758
I86
I173
tp173
a(I759
I87
I174
tp174
a(I759
I87
I175
tp175
a(I760
I88
I176
tp176
a(I760
I88
I177
tp177
a(I761
I89
I178
tp178
a(I761
I89
I179
tp179
a(I762
I90
I180
tp180
a(I762
I90
I181
tp181
a(I763
I91
I182
tp182
a(I763
I91
I183
tp183
a(I764
I92
I184
tp184
a(I764
I92
I185
tp185
a(I765
I93
I186
tp186
a(I765
I93
I187
tp187
a(I766
I94
I188
tp188
a(I766
I94
I189
tp189
a(I767
I95
I190
tp190
a(I767
I95
I191
tp191
a(I768
I96
I192
tp192
a(I768
I96
I193
tp193
a(I769
I97
I194
tp194
a(I769
I97
I195
tp195
a(I770
I98
I196
tp196
a(I770
I98
I197
tp197
a(I771
I99
I198
tp198
a(I771
I99
I199
tp199
a(I772
I100
I200
tp200
a(I772
I100
I201
tp201
a(I773
I101
I202
tp202
a(I773
I101
I203
tp203
a(I774
I102
I204
tp204
a(I774
I102
I205
tp205
a(I775
I103
I206
tp206
a(I775
I103
I207
tp207
a(I776
I104
I208
tp208
a(I776
I104
I209
tp209
a(I777
I105
I210
tp210
a(I777
I105
I211
tp211
a(I778
I106
I212
tp212
a(I778
I106
I213
tp213
a(I779
I107
I214
tp214
a(I779
I107
I215
tp215
a(I780
I108
I216
tp216
a(I780
I108
I217
tp217
a(I781
I109
I218
tp218
a(I781
I109
I219
tp219
a(I782
I110
I220
tp220
a(I782
I110
I221
tp221
a(I783
I111
I222
tp222
a(I783
I111
I223
tp223
a(I784
I112
I224
tp224
a(I784
I112
I225
tp225
a(I785
I113
I226
tp226
a(I785
I113
I227
tp227
a(I786
I114
I228
tp228
a(I786
I114
I229
tp229
a(I787
I115
I230
tp230
a(I787
I115
I231
tp231
a(I788
I116
I232
tp232
a(I788
I116
I233
tp233
a(I789
I117
I234
tp234
a(I789
I117
I235
tp235
a(I790
I118
I236
tp236
a(I790
I118
I237
tp237
a(I791
I119
I238
tp238
a(I791
I119
I239
tp239
a(I792
I120
I240
tp240
a(I792
I120
I241
tp241
a(I793
I121
I242
tp242
a(I793
I121
I243
tp243
a(I794
I122
I244
tp244
a(I794
I122
I245
tp245
a(I795
I123
I246
tp246
a(I795
I123
I247
tp247
a(I796
I124
I248
tp248
a(I796
I124
I249
tp249
a(I797
I125
I250
tp250
a(I797
I125
I251
tp251
a(I798
I126
I252
tp252
a(I798
I126
I253
tp253
a(I799
I127
I254
tp254
a(I799
I127
I255
tp255
a(I800
I128
I256
tp256
a(I800
I128
I257
tp257
a(I801
I129
I258
tp258
a(I801
I129
I259
tp259
a(I802
I130
I260
tp260
a(I802
I130
I261
tp261
a(I803
I131
I262
tp262
a(I803
I131
I263
tp263
a(I804
I132
I264
tp264
a(I804
I132
I265
tp265
a(I805
I133
I266
tp266
a(I805
I133
I267
tp267
a(I806
I134
I268
tp268
a(I806
I134
I269
tp269
a(I807
I135
I270
tp270
a(I807
I135
I271
tp271
a(I808
I136
I272
tp272
a(I808
I136
I273
tp273
a(I809
I137
I274
tp274
a(I809
I137
I275
tp275
a(I810
I138
I276
tp276
a(I810
I138
I277
tp277
a(I811
I139
I278
tp278
a(I811
I139
I279
tp279
a(I812
I140
I280
tp280
a(I812
I140
I281
tp281
a(I813
I141
I282
tp282
a(I813
I141
I283
tp283
a(I814
I142
I284
tp284
a(I814
I142
I285
tp285
a(I815
I143
I286
tp286
a(I815
I143
I287
tp287
a(I816
I144
I288
tp288
a(I816
I144
I289
tp289
a(I817
I145
I290
tp290
a(I817
I145
I291
tp291
a(I818
I146
I292
tp292
a(I818
I146
I293
tp293
a(I819
I147
I294
tp294
a(I819
I147
I295
tp295
a(I820
I148
I296
tp296
a(I820
I148
I297
tp297
a(I821
I149
I298
tp298
a(I821
I149
I299
tp299
a(I822
I150
I300
tp300
a(I822
I150
I301
tp301
a(I823
I151
I302
tp302
a(I823
I151
I303
tp303
a(I824
I152
I304
tp304
a(I824
I152
I305
tp305
a(I825
I153
I306
tp306
a(I825
I153
I307
tp307
a(I826
I154
I308
tp308
a(I826
I154
I309
tp309
a(I827
I155
I310
tp310
a(I827
I155
I311
tp311
a(I828
I156
I312
tp312
a(I828
I156
I313
tp313
a(I829
I157
I314
tp314
a(I829
I157
I315
tp315
a(I830
I158
I316
tp316
a(I830
I158
I317
tp317
a(I831
I159
I318
tp318
a(I831
I159
I319
tp319
a(I832
I160
I320
tp320
a(I832
I160
I321
tp321
a(I833
I161
I322
tp322
a(I833
I161
I323
tp323
a(I834
I162
I324
tp324
a(I834
I162
I325
tp325
a(I835
I163
I326
tp326
a(I835
I163
I327
tp327
a(I836
I164
I328
tp328
a(I836
I164
I329
tp329
a(I837
I165
I330
tp330
a(I837
I165
I331
tp331
a(I838
I166
I332
tp332
a(I838
I166
I333
tp333
a(I839
I167
I334
tp334
a(I839
I167
I335
tp335
a(I840
I168
I336
tp336
a(I840
I168
I337
tp337
a(I841
I169
I338
tp338
a(I841
I169
I339
tp339
a(I842
I170
I340
tp340
a(I842
I170
I341
tp341
a(I843
I171
I342
tp342
a(I843
I171
I343
tp343
a(I844
I172
I344
tp344
a(I844
I172
I345
tp345
a(I845
I173
I346
tp346
a(I845
I173
I347
tp347
a(I846
I174
I348
tp348
a(I846
I174
I349
tp349
a(I847
I175
I350
tp350
a(I847
I175
I351
tp351
a(I848
I176
I352
tp352
a(I848
I176
I353
tp353
a(I849
I177
I354
tp354
a(I849
I177
I355
tp355
a(I850
I178
I356
tp356
a(I850
I178
I357
tp357
a(I851
I179
I358
tp358
a(I851
I179
I359
tp359
a(I852
I180
I360
tp360
a(I852
I180
I361
tp361
a(I853
I181
I362
tp362
a(I853
I181
I363
tp363
a(I854
I182
I364
tp364
a(I854
I182
I365
tp365
a(I855
I183
I366
tp366
a(I855
I183
I367
tp367
a(I856
I184
I368
tp368
a(I856
I184
I369
tp369
a(I857
I185
I370
tp370
a(I857
I185
I371
tp371
a(I858
I186
I372
tp372
a(I858
I186
I373
tp373
a(I859
I187
I374
tp374
a(I859
I187
I375
tp375
a(I860
I188
I376
tp376
a(I860
I188
I377
tp377
a(I861
I189
I378
tp378
a(I861
I189
I379
tp379
a(I862
I190
I380
tp380
a(I862
I190
I381
tp381
a(I863
I191
I382
tp382
a(I863
I191
I383
tp383
a(I864
I192
I384
tp384
a(I864
I192
I385
tp385
a(I865
I193
I386
tp386
a(I865
I193
I387
tp387
a(I866
I194
I388
tp388
a(I866
I194
I389
tp389
a(I867
I195
I390
tp390
a(I867
I195
I391
tp391
a(I868
I196
I392
tp392
a(I868
I196
I393
tp393
a(I869
I197
I394
tp394
a(I869
I197
I395
tp395
a(I870
I198
I396
tp396
a(I870
I198
I397
tp397
a(I871
I199
I398
tp398
a(I871
I199
I399
tp399
a(I872
I200
I400
tp400
a(I872
I200
I401
tp401
a(I873
I201
I402
tp402
a(I873
I201
I403
tp403
a(I874
I202
I404
tp404
a(I874
I202
I405
tp405
a(I875
I203
I406
tp406
a(I875
I203
I407
tp407
a(I876
I204
I408
tp408
a(I876
I204
I409
tp409
a(I877
I205
I410
tp410
a(I877
I205
I411
tp411
a(I878
I206
I412
tp412
a(I878
I206
I413
tp413
a(I879
I207
I414
tp414
a(I879
I207
I415
tp415
a(I880
I208
I416
tp416
a(I880
I208
I417
tp417
a(I881
I209
I418
tp418
a(I881
I209
I419
tp419
a(I882
I210
I420
tp420
a(I882
I210
I421
tp421
a(I883
I211
I422
tp422
a(I883
I211
I423
tp423
a(I884
I212
I424
tp424
a(I884
I212
I425
tp425
a(I885
I213
I426
tp426
a(I885
I213
I427
tp427
a(I886
I214
I428
tp428
a(I886
I214
I429
tp429
a(I887
I215
I430
tp430
a(I887
I215
I431
tp431
a(I888
I216
I432
tp432
a(I888
I216
I433
tp433
a(I889
I217
I434
tp434
a(I889
I217
I435
tp435
a(I890
I218
I436
tp436
a(I890
I218
I437
tp437
a(I891
I219
I438
tp438
a(I891
I219
I439
tp439
a(I892
I220
I440
tp440
a(I892
I220
I441
tp441
a(I893
I221
I442
tp442
a(I893
I221
I443
tp443
a(I894
I222
I444
tp444
a(I894
I222
I445
tp445
a(I895
I223
I446
tp446
a(I895
I223
I447
tp447
a(I896
I224
I448
tp448
a(I896
I224
I449
tp449
a(I897
I225
I450
tp450
a(I897
I225
I451
tp451
a(I898
I226
I452
tp452
a(I898
I226
I453
tp453
a(I899
I227
I454
tp454
a(I899
I227
I455
tp455
a(I900
I228
I456
tp456
a(I900
I228
I457
tp457
a(I901
I229
I458
tp458
a(I901
I229
I459
tp459
a(I902
I230
I460
tp460
a(I902
I230
I461
tp461
a(I903
I231
I462
tp462
a(I903
I231
I463
tp463
a(I904
I232
I464
tp464
a(I904
I232
I465
tp465
a(I905
I233
I466
tp466
a(I905
I233
I467
tp467
a(I906
I234
I468
tp468
a(I906
I234
I469
tp469
a(I907
I235
I470
tp470
a(I907
I235
I471
tp471
a(I908
I236
I472
tp472
a(I908
I236
I473
tp473
a(I909
I237
I474
tp474
a(I909
I237
I475
tp475
a(I910
I238
I476
tp476
a(I910
I238
I477
tp477
a(I911
I239
I478
tp478
a(I911
I239
I479
tp479
a(I912
I240
I480
tp480
a(I912
I240
I481
tp481
a(I913
I241
I482
tp482
a(I913
I241
I483
tp483
a(I914
I242
I484
tp484
a(I914
I242
I485
tp485
a(I915
I243
I486
tp486
a(I915
I243
I487
tp487
a(I916
I244
I488
tp488
a(I916
I244
I489
tp489
a(I917
I245
I490
tp490
a(I917
I245
I491
tp491
a(I918
I246
I492
tp492
a(I918
I246
I493
tp493
a(I919
I247
I494
tp494
a(I919
I247
I495
tp495
a(I920
I248
I496
tp496
a(I920
I248
I497
tp497
a(I921
I249
I498
tp498
a(I921
I249
I499
tp499
a(I922
I250
I500
tp500
a(I922
I250
I501
tp501
a(I923
I251
I502
tp502
a(I923
I251
I503
tp503
a(I924
I252
I504
tp504
a(I924
I252
I505
tp505
a(I925
I253
I506
tp506
a(I925
I253
I507
tp507
a(I926
I254
I508
tp508
a(I926
I254
I509
tp509
a(I927
I255
I510
tp510
a(I927
I255
I511
tp511
a(I928
I256
I512
tp512
a(I928
I256
I513
tp513
a(I929
I257
I514
tp514
a(I929
I257
I515
tp515
a(I930
I258
I516
tp516
a(I930
I258
I517
tp517
a(I931
I259
I518
tp518
a(I931
I259
I519
tp519
a(I932
I260
I520
tp520
a(I932
I260
I521
tp521
a(I933
I261
I522
tp522
a(I933
I261
I523
tp523
a(I934
I262
I524
tp524
a(I934
I262
I525
tp525
a(I935
I263
I526
tp526
a(I935
I263
I527
tp527
a(I936
I264
I528
tp528
a(I936
I264
I529
tp529
a(I937
I265
I530
tp530
a(I937
I265
I531
tp531
a(I938
I266
I532
tp532
a(I938
I266
I533
tp533
a(I939
I267
I534
tp534
a(I939
I267
I535
tp535
a(I940
I268
I536
tp536
a(I940
I268
I537
tp537
a(I941
I269
I538
tp538
a(I941
I269
I539
tp539
a(I942
I270
I540
tp540
a(I942
I270
I541
tp541
a(I943
I271
I542
tp542
a(I943
I271
I543
tp543
a(I944
I272
I544
tp544
a(I944
I272
I545
tp545
a(I945
I273
I546
tp546
a(I945
I273
I547
tp547
a(I946
I274
I548
tp548
a(I946
I274
I549
tp549
a(I947
I275
I550
tp550
a(I947
I275
I551
tp551
a(I948
I276
I552
tp552
a(I948
I276
I553
tp553
a(I949
I277
I554
tp554
a(I949
I277
I555
tp555
a(I950
I278
I556
tp556
a(I950
I278
I557
tp557
a(I951
I279
I558
tp558
a(I951
I279
I559
tp559
a(I952
I280
I560
tp560
a(I952
I280
I561
tp561
a(I953
I281
I562
tp562
a(I953
I281
I563
tp563
a(I954
I282
I564
tp564
a(I954
I282
I565
tp565
a(I955
I283
I566
tp566
a(I955
I283
I567
tp567
a(I956
I284
I568
tp568
a(I956
I284
I569
tp569
a(I957
I285
I570
tp570
a(I957
I285
I571
tp571
a(I958
I286
I572
tp572
a(I958
I286
I573
tp573
a(I959
I287
I574
tp574
a(I959
I287
I575
tp575
a(I960
I288
I576
tp576
a(I960
I288
I577
tp577
a(I961
I289
I578
tp578
a(I961
I289
I579
tp579
a(I962
I290
I580
tp580
a(I962
I290
I581
tp581
a(I963
I291
I582
tp582
a(I963
I291
I583
tp583
a(I964
I292
I584
tp584
a(I964
I292
I585
tp585
a(I965
I293
I586
tp586
a(I965
I293
I587
tp587
a(I966
I294
I588
tp588
a(I966
I294
I589
tp589
a(I967
I295
I590
tp590
a(I967
I295
I591
tp591
a(I968
I296
I592
tp592
a(I968
I296
I593
tp593
a(I969
I297
I594
tp594
a(I969
I297
I595
tp595
a(I970
I298
I596
tp596
a(I970
I298
I597
tp597
a(I971
I299
I598
tp598
a(I971
I299
I599
tp599
a(I972
I300
I600
tp600
a(I972
I300
I601
tp601
a(I973
I301
I602
tp602
a(I973
I301
I603
tp603
a(I974
I302
I604
tp604
a(I974
I302
I605
tp605
a(I975
I303
I606
tp606
a(I975
I303
I607
tp607
a(I976
I304
I608
tp608
a(I976
I304
I609
tp609
a(I977
I305
I610
tp610
a(I977
I305
I611
tp611
a(I978
I306
I612
tp612
a(I978
I306
I613
tp613
a(I979
I307
I614
tp614
a(I979
I307
I615
tp615
a(I980
I308
I616
tp616
a(I980
I308
I617
tp617
a(I981
I309
I618
tp618
a(I981
I309
I619
tp619
a(I982
I310
I620
tp620
a(I982
I310
I621
tp621
a(I983
I311
I622
tp622
a(I983
I311
I623
tp623
a(I984
I312
I624
tp624
a(I984
I312
I625
tp625
a(I985
I313
I626
tp626
a(I985
I313
I627
tp627
a(I986
I314
I628
tp628
a(I986
I314
I629
tp629
a(I987
I315
I630
tp630
a(I987
I315
I631
tp631
a(I988
I316
I632
tp632
a(I988
I316
I633
tp633
a(I989
I317
I634
tp634
a(I989
I317
I635
tp635
a(I990
I318
I636
tp636
a(I990
I318
I637
tp637
a(I991
I319
I638
tp638
a(I991
I319
I639
tp639
a(I992
I320
I640
tp640
a(I992
I320
I641
tp641
a(I993
I321
I642
tp642
a(I993
I321
I643
tp643
a(I994
I322
I644
tp644
a(I994
I322
I645
tp645
a(I995
I323
I646
tp646
a(I995
I323
I647
tp647
a(I996
I324
I648
tp648
a(I996
I324
I649
tp649
a(I997
I325
I650
tp650
a(I997
I325
I651
tp651
a(I998
I326
I652
tp652
a(I998
I326
I653
tp653
a(I999
I327
I654
tp654
a(I999
I327
I655
tp655
a(I1000
I328
I656
tp656
a(I1000
I328
I657
tp657
a(I1001
I329
I658
tp658
a(I1001
I329
I659
tp659
a(I1002
I330
I660
tp660
a(I1002
I330
I661
tp661
a(I1003
I331
I662
tp662
a(I1003
I331
I663
tp663
a(I1004
I332
I664
tp664
a(I1004
I332
I665
tp665
a(I1005
I333
I666
tp666
a(I1005
I333
I667
tp667
a(I1006
I334
I668
tp668
a(I1006
I334
I669
tp669
a(I1007
I335
I670
tp670
a(I1007
I335
I671
tp671
a(I1008
I336
I672
tp672
a(I1008
I336
I673
tp673
a(I1009
I337
I674
tp674
a(I1009
I337
I675
tp675
a(I1010
I338
I676
tp676
a(I1010
I338
I677
tp677
a(I1011
I339
I678
tp678
a(I1011
I339
I679
tp679
a(I1012
I340
I680
tp680
a(I1012
I340
I681
tp681
a(I1013
I341
I682
tp682
a(I1013
I341
I683
tp683
a(I1014
I342
I684
tp684
a(I1014
I342
I685
tp685
a(I1015
I343
I686
tp686
a(I1015
I343
I687
tp687
a(I1016
I344
I688
tp688
a(I1016
I344
I689
tp689
a(I1017
I345
I690
tp690
a(I1017
I345
I691
tp691
a(I1018
I346
I692
tp692
a(I1018
I346
I693
tp693
a(I1019
I347
I694
tp694
a(I1019
I347
I695
tp695
a(I1020
I348
I696
tp696
a(I1020
I348
I697
tp697
a(I1021
I349
I698
tp698
a(I1021
I349
I699
tp699
a(I1022
I350
I700
tp700
a(I1022
I350
I701
tp701
a(I1023
I351
I702
tp702
a(I1023
I351
I703
tp703
a(I1024
I352
I704
tp704
a(I1024
I352
I705
tp705
a(I1025
I353
I706
tp706
a(I1025
I353
I707
tp707
a(I1026
I354
I708
tp708
a(I1026
I354
I709
tp709
a(I1027
I355
I710
tp710
a(I1027
I355
I711
tp711
a(I1028
I356
I712
tp712
a(I1028
I356
I713
tp713
a(I1029
I357
I714
tp714
a(I1029
I357
I715
tp715
a(I1030
I358
I716
tp716
a(I1030
I358
I717
tp717
a(I1031
I359
I718
tp718
a(I1031
I359
I719
tp719
a(I1032
I360
I720
tp720
a(I1032
I360
I721
tp721
a(I1033
I361
I722
tp722
a(I1033
I361
I723
tp723
a(I1034
I362
I724
tp724
a(I1034
I362
I725
tp725
a(I1035
I363
I726
tp726
a(I1035
I363
I727
tp727
a(I1036
I364
I728
tp728
a(I1036
I364
I729
tp729
a(I1037
I365
I730
tp730
a(I1037
I365
I731
tp731
a(I1038
I366
I732
tp732
a(I1038
I366
I733
tp733
a(I1039
I367
I734
tp734
a(I1039
I367
I735
tp735
a(I1040
I368
I736
tp736
a(I1040
I368
I737
tp737
a(I1041
I369
I738
tp738
a(I1041
I369
I739
tp739
a(I1042
I370
I740
tp740
a(I1042
I370
I741
tp741
a(I1043
I371
I742
tp742
a(I1043
I371
I743
tp743
a(I1044
I372
I744
tp744
a(I1044
I372
I745
tp745
a(I1045
I373
I746
tp746
a(I1045
I373
I747
tp747
a(I1046
I374
I748
tp748
a(I1046
I374
I749
tp749
a(I1047
I375
I750
tp750
a(I1047
I375
I751
tp751
a(I1048
I376
I752
tp752
a(I1048
I376
I753
tp753
a(I1049
I377
I754
tp754
a(I1049
I377
I755
tp755
a(I1050
I378
I756
tp756
a(I1050
I378
I757
tp757
a(I1051
I379
I758
tp758
a(I1051
I379
I759
tp759
a(I1052
I380
I760
tp760
a(I1052
I380
I761
tp761
a(I1053
I381
I762
tp762
a(I1053
I381
I763
tp763
a(I1054
I382
I764
tp764
a(I1054
I382
I765
tp765
a(I1055
I383
I766
tp766
a(I1055
I383
I767
tp767
a(I1056
I384
I768
tp768
a(I1056
I384
I769
tp769
a(I1057
I385
I770
tp770
a(I1057
I385
I771
tp771
a(I1058
I386
I772
tp772
a(I1058
I386
I773
tp773
a(I1059
I387
I774
tp774
a(I1059
I387
I775
tp775
a(I1060
I388
I776
tp776
a(I1060
I388
I777
tp777
a(I1061
I389
I778
tp778
a(I1061
I389
I779
tp779
a(I1062
I390
I780
tp780
a(I1062
I390
I781
tp781
a(I1063
I391
I782
tp782
a(I1063
I391
I783
tp783
a(I1064
I392
I784
tp784
a(I1064
I392
I785
tp785
a(I1065
I393
I786
tp786
a(I1065
I393
I787
tp787
a(I1066
I394
I788
tp788
a(I1066
I394
I789
tp789
a(I1067
I395
I790
tp790
a(I1067
I395
I791
tp791
a(I1068
I396
I792
tp792
a(I1068
I396
I793
tp793
a(I1069
I397
I794
tp794
a(I1069
I397
I795
tp795
a(I1070
I398
I796
tp796
a(I1070
I398
I797
tp797
a(I1071
I399
I798
tp798
a(I1071
I399
I799
tp799
a(I1072
I400
I800
tp800
a(I1072
I400
I801
tp801
a(I1073
I401
I802
tp802
a(I1073
I401
I803
tp803
a(I1074
I402
I804
tp804
a(I1074
I402
I805
tp805
a(I1075
I403
I806
tp806
a(I1075
I403
I807
tp807
a(I1076
I404
I808
tp808
a(I1076
I404
I809
tp809
a(I1077
I405
I810
tp810
a(I1077
I405
I811
tp811
a(I1078
I406
I812
tp812
a(I1078
I406
I813
tp813
a(I1079
I407
I814
tp814
a(I1079
I407
I815
tp815
a(I1080
I408
I816
tp816
a(I1080
I408
I817
tp817
a(I1081
I409
I818
tp818
a(I1081
I409
I819
tp819
a(I1082
I410
I820
tp820
a(I1082
I410
I821
tp821
a(I1083
I411
I822
tp822
a(I1083
I411
I823
tp823
a(I1084
I412
I824
tp824
a(I1084
I412
I825
tp825
a(I1085
I413
I826
tp826
a(I1085
I413
I827
tp827
a(I1086
I414
I828
tp828
a(I1086
I414
I829
tp829
a(I1087
I415
I830
tp830
a(I1087
I415
I831
tp831
a(I1088
I416
I832
tp832
a(I1088
I416
I833
tp833
a(I1089
I417
I834
tp834
a(I1089
I417
I835
tp835
a(I1090
I418
I836
tp836
a(I1090
I418
I837
tp837
a(I1091
I419
I838
tp838
a(I1091
I419
I839
tp839
a(I1092
I420
I840
tp840
a(I1092
I420
I841
tp841
a(I1093
I421
I842
tp842
a(I1093
I421
I843
tp843
a(I1094
I422
I844
tp844
a(I1094
I422
I845
tp845
a(I1095
I423
I846
tp846
a(I1095
I423
I847
tp847
a(I1096
I424
I848
tp848
a(I1096
I424
I849
tp849
a(I1097
I425
I850
tp850
a(I1097
I425
I851
tp851
a(I1098
I426
I852
tp852
a(I1098
I426
I853
tp853
a(I1099
I427
I854
tp854
a(I1099
I427
I855
tp855
a(I1100
I428
I856
tp856
a(I1100
I428
I857
tp857
a(I1101
I429
I858
tp858
a(I1101
I429
I859
tp859
a(I1102
I430
I860
tp860
a(I1102
I430
I861
tp861
a(I1103
I431
I862
tp862
a(I1103
I431
I863
tp863
a(I1104
I432
I864
tp864
a(I1104
I432
I865
tp865
a(I1105
I433
I866
tp866
a(I1105
I433
I867
tp867
a(I1106
I434
I868
tp868
a(I1106
I434
I869
tp869
a(I1107
I435
I870
tp870
a(I1107
I435
I871
tp871
a(I1108
I436
I872
tp872
a(I1108
I436
I873
tp873
a(I1109
I437
I874
tp874
a(I1109
I437
I875
tp875
a(I1110
I438
I876
tp876
a(I1110
I438
I877
tp877
a(I1111
I439
I878
tp878
a(I1111
I439
I879
tp879
a(I1112
I440
I880
tp880
a(I1112
I440
I881
tp881
a(I1113
I441
I882
tp882
a(I1113
I441
I883
tp883
a(I1114
I442
I884
tp884
a(I1114
I442
I885
tp885
a(I1115
I443
I886
tp886
a(I1115
I443
I887
tp887
a(I1116
I444
I888
tp888
a(I1116
I444
I889
tp889
a(I1117
I445
I890
tp890
a(I1117
I445
I891
tp891
a(I1118
I446
I892
tp892
a(I1118
I446
I893
tp893
a(I1119
I447
I894
tp894
a(I1119
I447
I895
tp895
a(I1120
I448
I896
tp896
a(I1120
I448
I897
tp897
a(I1121
I449
I898
tp898
a(I1121
I449
I899
tp899
a(I1122
I450
I900
tp900
a(I1122
I450
I901
tp901
a(I1123
I451
I902
tp902
a(I1123
I451
I903
tp903
a(I1124
I452
I904
tp904
a(I1124
I452
I905
tp905
a(I1125
I453
I906
tp906
a(I1125
I453
I907
tp907
a(I1126
I454
I908
tp908
a(I1126
I454
I909
tp909
a(I1127
I455
I910
tp910
a(I1127
I455
I911
tp911
a(I1128
I456
I912
tp912
a(I1128
I456
I913
tp913
a(I1129
I457
I914
tp914
a(I1129
I457
I915
tp915
a(I1130
I458
I916
tp916
a(I1130
I458
I917
tp917
a(I1131
I459
I918
tp918
a(I1131
I459
I919
tp919
a(I1132
I460
I920
tp920
a(I1132
I460
I921
tp921
a(I1133
I461
I922
tp922
a(I1133
I461
I923
tp923
a(I1134
I462
I924
tp924
a(I1134
I462
I925
tp925
a(I1135
I463
I926
tp926
a(I1135
I463
I927
tp927
a(I1136
I464
I928
tp928
a(I1136
I464
I929
tp929
a(I1137
I465
I930
tp930
a(I1137
I465
I931
tp931
a(I1138
I466
I932
tp932
a(I1138
I466
I933
tp933
a(I1139
I467
I934
tp934
a(I1139
I467
I935
tp935
a(I1140
I468
I936
tp936
a(I1140
I468
I937
tp937
a(I1141
I469
I938
tp938
a(I1141
I469
I939
tp939
a(I1142
I470
I940
tp940
a(I1142
I470
I941
tp941
a(I1143
I471
I942
tp942
a(I1143
I471
I943
tp943
a(I1144
I472
I944
tp944
a(I1144
I472
I945
tp945
a(I1145
I473
I946
tp946
a(I1145
I473
I947
tp947
a(I1146
I474
I948
tp948
a(I1146
I474
I949
tp949
a(I1147
I475
I950
tp950
a(I1147
I475
I951
tp951
a(I1148
I476
I952
tp952
a(I1148
I476
I953
tp953
a(I1149
I477
I954
tp954
a(I1149
I477
I955
tp955
a(I1150
I478
I956
tp956
a(I1150
I478
I957
tp957
a(I1151
I479
I958
tp958
a(I1151
I479
I959
tp959
a(I1152
I480
I960
tp960
a(I1152
I480
I961
tp961
a(I1153
I481
I962
tp962
a(I1153
I481
I963
tp963
a(I1154
I482
I964
tp964
a(I1154
I482
I965
tp965
a(I1155
I483
I966
tp966
a(I1155
I483
I967
tp967
a(I1156
I484
I968
tp968
a(I1156
I484
I969
tp969
a(I1157
I485
I970
tp970
a(I1157
I485
I971
tp971
a(I1158
I486
I972
tp972
a(I1158
I486
I973
tp973
a(I1159
I487
I974
tp974
a(I1159
I487
I975
tp975
a(I1160
I488
I976
tp976
a(I1160
I488
I977
tp977
a(I1161
I489
I978
tp978
a(I1161
I489
I979
tp979
a(I1162
I490
I980
tp980
a(I1162
I490
I981
tp981
a(I1163
I491
I982
tp982
a(I1163
I491
I983
tp983
a(I1164
I492
I984
tp984
a(I1164
I492
I985
tp985
a(I1165
I493
I986
tp986
a(I1165
I493
I987
tp987
a(I1166
I494
I988
tp988
a(I1166
I494
I989
tp989
a(I1167
I495
I990
tp990
a(I1167
I495
I991
tp991
a(I1168
I496
I992
tp992
a(I1168
I496
I993
tp993
a(I1169
I497
I994
tp994
a(I1169
I497
I995
tp995
a(I1170
I498
I996
tp996
a(I1170
I498
I997
tp997
a(I1171
I499
I998
tp998
a(I1171
I499
I999
tp999
a(I1172
I500
I1000
tp1000
a(I1172
I500
I1001
tp1001
a(I1173
I501
I1002
tp1002
a(I1173
I501
I1003
tp1003
a(I1174
I502
I1004
tp1004
a(I1174
I502
I1005
tp1005
a(I1175
I503
I1006
tp1006
a(I1175
I503
I1007
tp1007
a(I1176
I504
I1008
tp1008
a(I1176
I504
I1009
tp1009
a(I1177
I505
I1010
tp1010
a(I1177
I505
I1011
tp1011
a(I1178
I506
I1012
tp1012
a(I1178
I506
I1013
tp1013
a(I1179
I507
I1014
tp1014
a(I1179
I507
I1015
tp1015
a(I1180
I508
I1016
tp1016
a(I1180
I508
I1017
tp1017
a(I1181
I509
I1018
tp1018
a(I1181
I509
I1019
tp1019
a(I1182
I510
I1020
tp1020
a(I1182
I510
I1021
tp1021
a(I1183
I511
I1022
tp1022
a(I1183
I511
I1023
tp1023
a(I1184
I512
I1024
tp1024
a(I1184
I512
I1025
tp1025
a(I1185
I513
I1026
tp1026
a(I1185
I513
I1027
tp1027
a(I1186
I514
I1028
tp1028
a(I1186
I514
I1029
tp1029
a(I1187
I515
I1030
tp1030
a(I1187
I515
I1031
tp1031
a(I1188
I516
I1032
tp1032
a(I1188
I516
I1033
tp1033
a(I1189
I517
I1034
tp1034
a(I1189
I517
I1035
tp1035
a(I1190
I518
I1036
tp1036
a(I1190
I518
I1037
tp1037
a(I1191
I519
I1038
tp1038
a(I1191
I519
I1039
tp1039
a(I1192
I520
I1040
tp1040
a(I1192
I520
I1041
tp1041
a(I1193
I521
I1042
tp1042
a(I1193
I521
I1043
tp1043
a(I1194
I522
I1044
tp1044
a(I1194
I522
I1045
tp1045
a(I1195
I523
I1046
tp1046
a(I1195
I523
I1047
tp1047
a(I1196
I524
I1048
tp1048
a(I1196
I524
I1049
tp1049
a(I1197
I525
I1050
tp1050
a(I1197
I525
I1051
tp1051
a(I1198
I526
I1052
tp1052
a(I1198
I526
I1053
tp1053
a(I1199
I527
I1054
tp1054
a(I1199
I527
I1055
tp1055
a(I1200
I528
I1056
tp1056
a(I1200
I528
I1057
tp1057
a(I1201
I529
I1058
tp1058
a(I1201
I529
I1059
tp1059
a(I1202
I530
I1060
tp1060
a(I1202
I530
I1061
tp1061
a(I1203
I531
I1062
tp1062
a(I1203
I531
I1063
tp1063
a(I1204
I532
I1064
tp1064
a(I1204
I532
I1065
tp1065
a(I1205
I533
I1066
tp1066
a(I1205
I533
I1067
tp1067
a(I1206
I534
I1068
tp1068
a(I1206
I534
I1069
tp1069
a(I1207
I535
I1070
tp1070
a(I1207
I535
I1071
tp1071
a(I1208
I536
I1072
tp1072
a(I1208
I536
I1073
tp1073
a(I1209
I537
I1074
tp1074
a(I1209
I537
I1075
tp1075
a(I1210
I538
I1076
tp1076
a(I1210
I538
I1077
tp1077
a(I1211
I539
I1078
tp1078
a(I1211
I539
I1079
tp1079
a(I1212
I540
I1080
tp1080
a(I1212
I540
I1081
tp1081
a(I1213
I541
I1082
tp1082
a(I1213
I541
I1083
tp1083
a(I1214
I542
I1084
tp1084
a(I1214
I542
I1085
tp1085
a(I1215
I543
I1086
tp1086
a(I1215
I543
I1087
tp1087
a(I1216
I544
I1088
tp1088
a(I1216
I544
I1089
tp1089
a(I1217
I545
I1090
tp1090
a(I1217
I545
I1091
tp1091
a(I1218
I546
I1092
tp1092
a(I1218
I546
I1093
tp1093
a(I1219
I547
I1094
tp1094
a(I1219
I547
I1095
tp1095
a(I1220
I548
I1096
tp1096
a(I1220
I548
I1097
tp1097
a(I1221
I549
I1098
tp1098
a(I1221
I549
I1099
tp1099
a(I1222
I550
I1100
tp1100
a(I1222
I550
I1101
tp1101
a(I1223
I551
I1102
tp1102
a(I1223
I551
I1103
tp1103
a(I1224
I552
I1104
tp1104
a(I1224
I552
I1105
tp1105
a(I1225
I553
I1106
tp1106
a(I1225
I553
I1107
tp1107
a(I1226
I554
I1108
tp1108
a(I1226
I554
I1109
tp1109
a(I1227
I555
I1110
tp1110
a(I1227
I555
I1111
tp1111
a(I1228
I556
I1112
tp1112
a(I1228
I556
I1113
tp1113
a(I1229
I557
I1114
tp1114
a(I1229
I557
I1115
tp1115
a(I1230
I558
I1116
tp1116
a(I1230
I558
I1117
tp1117
a(I1231
I559
I1118
tp1118
a(I1231
I559
I1119
tp1119
a(I1232
I560
I1120
tp1120
a(I1232
I560
I1121
tp1121
a(I1233
I561
I1122
tp1122
a(I1233
I561
I1123
tp1123
a(I1234
I562
I1124
tp1124
a(I1234
I562
I1125
tp1125
a(I1235
I563
I1126
tp1126
a(I1235
I563
I1127
tp1127
a(I1236
I564
I1128
tp1128
a(I1236
I564
I1129
tp1129
a(I1237
I565
I1130
tp1130
a(I1237
I565
I1131
tp1131
a(I1238
I566
I1132
tp1132
a(I1238
I566
I1133
tp1133
a(I1239
I567
I1134
tp1134
a(I1239
I567
I1135
tp1135
a(I1240
I568
I1136
tp1136
a(I1240
I568
I1137
tp1137
a(I1241
I569
I1138
tp1138
a(I1241
I569
I1139
tp1139
a(I1242
I570
I1140
tp1140
a(I1242
I570
I1141
tp1141
a(I1243
I571
I1142
tp1142
a(I1243
I571
I1143
tp1143
a(I1244
I572
I1144
tp1144
a(I1244
I572
I1145
tp1145
a(I1245
I573
I1146
tp1146
a(I1245
I573
I1147
tp1147
a(I1246
I574
I1148
tp1148
a(I1246
I574
I1149
tp1149
a(I1247
I575
I1150
tp1150
a(I1247
I575
I1151
tp1151
a(I1248
I576
I1152
tp1152
a(I1248
I576
I1153
tp1153
a(I1249
I577
I1154
tp1154
a(I1249
I577
I1155
tp1155
a(I1250
I578
I1156
tp1156
a(I1250
I578
I1157
tp1157
a(I1251
I579
I1158
tp1158
a(I1251
I579
I1159
tp1159
a(I1252
I580
I1160
tp1160
a(I1252
I580
I1161
tp1161
a(I1253
I581
I1162
tp1162
a(I1253
I581
I1163
tp1163
a(I1254
I582
I1164
tp1164
a(I1254
I582
I1165
tp1165
a(I1255
I583
I1166
tp1166
a(I1255
I583
I1167
tp1167
a(I1256
I584
I1168
tp1168
a(I1256
I584
I1169
tp1169
a(I1257
I585
I1170
tp1170
a(I1257
I585
I1171
tp1171
a(I1258
I586
I1172
tp1172
a(I1258
I586
I1173
tp1173
a(I1259
I587
I1174
tp1174
a(I1259
I587
I1175
tp1175
a(I1260
I588
I1176
tp1176
a(I1260
I588
I1177
tp1177
a(I1261
I589
I1178
tp1178
a(I1261
I589
I1179
tp1179
a(I1262
I590
I1180
tp1180
a(I1262
I590
I1181
tp1181
a(I1263
I591
I1182
tp1182
a(I1263
I591
I1183
tp1183
a(I1264
I592
I1184
tp1184
a(I1264
I592
I1185
tp1185
a(I1265
I593
I1186
tp1186
a(I1265
I593
I1187
tp1187
a(I1266
I594
I1188
tp1188
a(I1266
I594
I1189
tp1189
a(I1267
I595
I1190
tp1190
a(I1267
I595
I1191
tp1191
a(I1268
I596
I1192
tp1192
a(I1268
I596
I1193
tp1193
a(I1269
I597
I1194
tp1194
a(I1269
I597
I1195
tp1195
a(I1270
I598
I1196
tp1196
a(I1270
I598
I1197
tp1197
a(I1271
I599
I1198
tp1198
a(I1271
I599
I1199
tp1199
a(I1272
I600
I1200
tp1200
a(I1272
I600
I1201
tp1201
a(I1273
I601
I1202
tp1202
a(I1273
I601
I1203
tp1203
a(I1274
I602
I1204
tp1204
a(I1274
I602
I1205
tp1205
a(I1275
I603
I1206
tp1206
a(I1275
I603
I1207
tp1207
a(I1276
I604
I1208
tp1208
a(I1276
I604
I1209
tp1209
a(I1277
I605
I1210
tp1210
a(I1277
I605
I1211
tp1211
a(I1278
I606
I1212
tp1212
a(I1278
I606
I1213
tp1213
a(I1279
I607
I1214
tp1214
a(I1279
I607
I1215
tp1215
a(I1280
I608
I1216
tp1216
a(I1280
I608
I1217
tp1217
a(I1281
I609
I1218
tp1218
a(I1281
I609
I1219
tp1219
a(I1282
I610
I1220
tp1220
a(I1282
I610
I1221
tp1221
a(I1283
I611
I1222
tp1222
a(I1283
I611
I1223
tp1223
a(I1284
I612
I1224
tp1224
a(I1284
I612
I1225
tp1225
a(I1285
I613
I1226
tp1226
a(I1285
I613
I1227
tp1227
a(I1286
I614
I1228
tp1228
a(I1286
I614
I1229
tp1229
a(I1287
I615
I1230
tp1230
a(I1287
I615
I1231
tp1231
a(I1288
I616
I1232
tp1232
a(I1288
I616
I1233
tp1233
a(I1289
I617
I1234
tp1234
a(I1289
I617
I1235
tp1235
a(I1290
I618
I1236
tp1236
a(I1290
I618
I1237
tp1237
a(I1291
I619
I1238
tp1238
a(I1291
I619
I1239
tp1239
a(I1292
I620
I1240
tp1240
a(I1292
I620
I1241
tp1241
a(I1293
I621
I1242
tp1242
a(I1293
I621
I1243
tp1243
a(I1294
I622
I1244
tp1244
a(I1294
I622
I1245
tp1245
a(I1295
I623
I1246
tp1246
a(I1295
I623
I1247
tp1247
a(I1296
I624
I1248
tp1248
a(I1296
I624
I1249
tp1249
a(I1297
I625
I1250
tp1250
a(I1297
I625
I1251
tp1251
a(I1298
I626
I1252
tp1252
a(I1298
I626
I1253
tp1253
a(I1299
I627
I1254
tp1254
a(I1299
I627
I1255
tp1255
a(I1300
I628
I1256
tp1256
a(I1300
I628
I1257
tp1257
a(I1301
I629
I1258
tp1258
a(I1301
I629
I1259
tp1259
a(I1302
I630
I1260
tp1260
a(I1302
I630
I1261
tp1261
a(I1303
I631
I1262
tp1262
a(I1303
I631
I1263
tp1263
a(I1304
I632
I1264
tp1264
a(I1304
I632
I1265
tp1265
a(I1305
I633
I1266
tp1266
a(I1305
I633
I1267
tp1267
a(I1306
I634
I1268
tp1268
a(I1306
I634
I1269
tp1269
a(I1307
I635
I1270
tp1270
a(I1307
I635
I1271
tp1271
a(I1308
I636
I1272
tp1272
a(I1308
I636
I1273
tp1273
a(I1309
I637
I1274
tp1274
a(I1309
I637
I1275
tp1275
a(I1310
I638
I1276
tp1276
a(I1310
I638
I1277
tp1277
a(I1311
I639
I1278
tp1278
a(I1311
I639
I1279
tp1279
a(I1312
I640
I1280
tp1280
a(I1312
I640
I1281
tp1281
a(I1313
I641
I1282
tp1282
a(I1313
I641
I1283
tp1283
a(I1314
I642
I1284
tp1284
a(I1314
I642
I1285
tp1285
a(I1315
I643
I1286
tp1286
a(I1315
I643
I1287
tp1287
a(I1316
I644
I1288
tp1288
a(I1316
I644
I1289
tp1289
a(I1317
I645
I1290
tp1290
a(I1317
I645
I1291
tp1291
a(I1318
I646
I1292
tp1292
a(I1318
I646
I1293
tp1293
a(I1319
I647
I1294
tp1294
a(I1319
I647
I1295
tp1295
a(I1320
I648
I1296
tp1296
a(I1320
I648
I1297
tp1297
a(I1321
I649
I1298
tp1298
a(I1321
I649
I1299
tp1299
a(I1322
I650
I1300
tp1300
a(I1322
I650
I1301
tp1301
a(I1323
I651
I1302
tp1302
a(I1323
I651
I1303
tp1303
a(I1324
I652
I1304
tp1304
a(I1324
I652
I1305
tp1305
a(I1325
I653
I1306
tp1306
a(I1325
I653
I1307
tp1307
a(I1326
I654
I1308
tp1308
a(I1326
I654
I1309
tp1309
a(I1327
I655
I1310
tp1310
a(I1327
I655
I1311
tp1311
a(I1328
I656
I1312
tp1312
a(I1328
I656
I1313
tp1313
a(I1329
I657
I1314
tp1314
a(I1329
I657
I1315
tp1315
a(I1330
I658
I1316
tp1316
a(I1330
I658
I1317
tp1317
a(I1331
I659
I1318
tp1318
a(I1331
I659
I1319
tp1319
a(I1332
I660
I1320
tp1320
a(I1332
I660
I1321
tp1321
a(I1333
I661
I1322
tp1322
a(I1333
I661
I1323
tp1323
a(I1334
I662
I1324
tp1324
a(I1334
I662
I1325
tp1325
a(I1335
I663
I1326
tp1326
a(I1335
I663
I1327
tp1327
a(I1336
I664
I1328
tp1328
a(I1336
I664
I1329
tp1329
a(I1337
I665
I1330
tp1330
a(I1337
I665
I1331
tp1331
a(I1338
I666
I1332
tp1332
a(I1338
I666
I1333
tp1333
a(I1339
I667
I1334
tp1334
a(I1339
I667
I1335
tp1335
a(I1340
I668
I1336
tp1336
a(I1340
I668
I1337
tp1337
a(I1341
I669
I1338
tp1338
a(I1341
I669
I1339
tp1339
a(I1342
I670
I1340
tp1340
a(I1342
I670
I1341
tp1341
a(I1343
I671
I1342
tp1342
a(I1343
I671
I1343
tp1343
a(I1344
I672
I1344
tp1344
a(I1344
I672
I1345
tp1345
a(I1345
I673
I1346
tp1346
a(I1345
I673
I1347
tp1347
a(I1346
I674
I1348
tp1348
a(I1346
I674
I1349
tp1349
a(I1347
I675
I1350
tp1350
a(I1347
I675
I1351
tp1351
a(I1348
I676
I1352
tp1352
a(I1348
I676
I1353
tp1353
a(I1349
I677
I1354
tp1354
a(I1349
I677
I1355
tp1355
a(I1350
I678
I1356
tp1356
a(I1350
I678
I1357
tp1357
a(I1351
I679
I1358
tp1358
a(I1351
I679
I1359
tp1359
a(I1352
I680
I1360
tp1360
a(I1352
I680
I1361
tp1361
a(I1353
I681
I1362
tp1362
a(I1353
I681
I1363
tp1363
a(I1354
I682
I1364
tp1364
a(I1354
I682
I1365
tp1365
a(I1355
I683
I1366
tp1366
a(I1355
I683
I1367
tp1367
a(I1356
I684
I1368
tp1368
a(I1356
I684
I1369
tp1369
a(I1357
I685
I1370
tp1370
a(I1357
I685
I1371
tp1371
a(I1358
I686
I1372
tp1372
a(I1358
I686
I1373
tp1373
a(I1359
I687
I1374
tp1374
a(I1359
I687
I1375
tp1375
a(I1360
I688
I1376
tp1376
a(I1360
I688
I1377
tp1377
a(I1361
I689
I1378
tp1378
a(I1361
I689
I1379
tp1379
a(I1362
I690
I1380
tp1380
a(I1362
I690
I1381
tp1381
a(I1363
I691
I1382
tp1382
a(I1363
I691
I1383
tp1383
a(I1364
I692
I1384
tp1384
a(I1364
I692
I1385
tp1385
a(I1365
I693
I1386
tp1386
a(I1365
I693
I1387
tp1387
a(I1366
I694
I1388
tp1388
a(I1366
I694
I1389
tp1389
a(I1367
I695
I1390
tp1390
a(I1367
I695
I1391
tp1391
a(I1368
I696
I1392
tp1392
a(I1368
I696
I1393
tp1393
a(I1369
I697
I1394
tp1394
a(I1369
I697
I1395
tp1395
a(I1370
I698
I1396
tp1396
a(I1370
I698
I1397
tp1397
a(I1371
I699
I1398
tp1398
a(I1371
I699
I1399
tp1399
a(I1372
I700
I1400
tp1400
a(I1372
I700
I1401
tp1401
a(I1373
I701
I1402
tp1402
a(I1373
I701
I1403
tp1403
a(I1374
I702
I1404
tp1404
a(I1374
I702
I1405
tp1405
a(I1375
I703
I1406
tp1406
a(I1375
I703
I1407
tp1407
a(I1376
I704
I1408
tp1408
a(I1376
I704
I1409
tp1409
a(I1377
I705
I1410
tp1410
a(I1377
I705
I1411
tp1411
a(I1378
I706
I1412
tp1412
a(I1378
I706
I1413
tp1413
a(I1379
I707
I1414
tp1414
a(I1379
I707
I1415
tp1415
a(I1380
I708
I1416
tp1416
a(I1380
I708
I1417
tp1417
a(I1381
I709
I1418
tp1418
a(I1381
I709
I1419
tp1419
a(I1382
I710
I1420
tp1420
a(I1382
I710
I1421
tp1421
a(I1383
I711
I1422
tp1422
a(I1383
I711
I1423
tp1423
a(I1384
I712
I1424
tp1424
a(I1384
I712
I1425
tp1425
a(I1385
I713
I1426
tp1426
a(I1385
I713
I1427
tp1427
a(I1386
I714
I1428
tp1428
a(I1386
I714
I1429
tp1429
a(I1387
I715
I1430
tp1430
a(I1387
I715
I1431
tp1431
a(I1388
I716
I1432
tp1432
a(I1388
I716
I1433
tp1433
a(I1389
I717
I1434
tp1434
a(I1389
I717
I1435
tp1435
a(I1390
I718
I1436
tp1436
a(I1390
I718
I1437
tp1437
a(I1391
I719
I1438
tp1438
a(I1391
I719
I1439
tp1439
a(I1392
I720
I1440
tp1440
a(I1392
I720
I1441
tp1441
a(I1393
I721
I1442
tp1442
a(I1393
I721
I1443
tp1443
a(I1394
I722
I1444
tp1444
a(I1394
I722
I1445
tp1445
a(I1395
I723
I1446
tp1446
a(I1395
I723
I1447
tp1447
a(I1396
I724
I1448
tp1448
a(I1396
I724
I1449
tp1449
a(I1397
I725
I1450
tp1450
a(I1397
I725
I1451
tp1451
a(I1398
I726
I1452
tp1452
a(I1398
I726
I1453
tp1453
a(I1399
I727
I1454
tp1454
a(I1399
I727
I1455
tp1455
a(I1400
I728
I1456
tp1456
a(I1400
I728
I1457
tp1457
a(I1401
I729
I1458
tp1458
a(I1401
I729
I1459
tp1459
a(I1402
I730
I1460
tp1460
a(I1402
I730
I1461
tp1461
a(I1403
I731
I1462
tp1462
a(I1403
I731
I1463
tp1463
a(I1404
I732
I1464
tp1464
a(I1404
I732
I1465
tp1465
a(I1405
I733
I1466
tp1466
a(I1405
I733
I1467
tp1467
a(I1406
I734
I1468
tp1468
a(I1406
I734
I1469
tp1469
a(I1407
I735
I1470
tp1470
a(I1407
I735
I1471
tp1471
a(I1408
I736
I1472
tp1472
a(I1408
I736
I1473
tp1473
a(I1409
I737
I1474
tp1474
a(I1409
I737
I1475
tp1475
a(I1410
I738
I1476
tp1476
a(I1410
I738
I1477
tp1477
a(I1411
I739
I1478
tp1478
a(I1411
I739
I1479
tp1479
a(I1412
I740
I1480
tp1480
a(I1412
I740
I1481
tp1481
a(I1413
I741
I1482
tp1482
a(I1413
I741
I1483
tp1483
a(I1414
I742
I1484
tp1484
a(I1414
I742
I1485
tp1485
a(I1415
I743
I1486
tp1486
a(I1415
I743
I1487
tp1487
a(I1416
I744
I1488
tp1488
a(I1416
I744
I1489
tp1489
a(I1417
I745
I1490
tp1490
a(I1417
I745
I1491
tp1491
a(I1418
I746
I1492
tp1492
a(I1418
I746
I1493
tp1493
a(I1419
I747
I1494
tp1494
a(I1419
I747
I1495
tp1495
a(I1420
I748
I1496
tp1496
a(I1420
I748
I1497
tp1497
a(I1421
I749
I1498
tp1498
a(I1421
I749
I1499
tp1499
a(I1422
I750
I1500
tp1500
a(I1422
I750
I1501
tp1501
a(I1423
I751
I1502
tp1502
a(I1423
I751
I1503
tp1503
a(I1424
I752
I1504
tp1504
a(I1424
I752
I1505
tp1505
a(I1425
I753
I1506
tp1506
a(I1425
I753
I1507
tp1507
a(I1426
I754
I1508
tp1508
a(I1426
I754
I1509
tp1509
a(I1427
I755
I1510
tp1510
a(I1427
I755
I1511
tp1511
a(I1428
I756
I1512
tp1512
a(I1428
I756
I1513
tp1513
a(I1429
I757
I1514
tp1514
a(I1429
I757
I1515
tp1515
a(I1430
I758
I1516
tp1516
a(I1430
I758
I1517
tp1517
a(I1431
I759
I1518
tp1518
a(I1431
I759
I1519
tp1519
a(I1432
I760
I1520
tp1520
a(I1432
I760
I1521
tp1521
a(I1433
I761
I1522
tp1522
a(I1433
I761
I1523
tp1523
a(I1434
I762
I1524
tp1524
a(I1434
I762
I1525
tp1525
a(I1435
I763
I1526
tp1526
a(I1435
I763
I1527
tp1527
a(I1436
I764
I1528
tp1528
a(I1436
I764
I1529
tp1529
a(I1437
I765
I1530
tp1530
a(I1437
I765
I1531
tp1531
a(I1438
I766
I1532
tp1532
a(I1438
I766
I1533
tp1533
a(I1439
I767
I1534
tp1534
a(I1439
I767
I1535
tp1535
a(I1440
I768
I1536
tp1536
a(I1440
I768
I1537
tp1537
a(I1441
I769
I1538
tp1538
a(I1441
I769
I1539
tp1539
a(I1442
I770
I1540
tp1540
a(I1442
I770
I1541
tp1541
a(I1443
I771
I1542
tp1542
a(I1443
I771
I1543
tp1543
a(I1444
I772
I1544
tp1544
a(I1444
I772
I1545
tp1545
a(I1445
I773
I1546
tp1546
a(I1445
I773
I1547
tp1547
a(I1446
I774
I1548
tp1548
a(I1446
I774
I1549
tp1549
a(I1447
I775
I1550
tp1550
a(I1447
I775
I1551
tp1551
a(I1448
I776
I1552
tp1552
a(I1448
I776
I1553
tp1553
a(I1449
I777
I1554
tp1554
a(I1449
I777
I1555
tp1555
a(I1450
I778
I1556
tp1556
a(I1450
I778
I1557
tp1557
a(I1451
I779
I1558
tp1558
a(I1451
I779
I1559
tp1559
a(I1452
I780
I1560
tp1560
a(I1452
I780
I1561
tp1561
a(I1453
I781
I1562
tp1562
a(I1453
I781
I1563
tp1563
a(I1454
I782
I1564
tp1564
a(I1454
I782
I1565
tp1565
a(I1455
I783
I1566
tp1566
a(I1455
I783
I1567
tp1567
a(I1456
I784
I1568
tp1568
a(I1456
I784
I1569
tp1569
a(I1457
I785
I1570
tp1570
a(I1457
I785
I1571
tp1571
a(I1458
I786
I1572
tp1572
a(I1458
I786
I1573
tp1573
a(I1459
I787
I1574
tp1574
a(I1459
I787
I1575
tp1575
a(I1460
I788
I1576
tp1576
a(I1460
I788
I1577
tp1577
a(I1461
I789
I1578
tp1578
a(I1461
I789
I1579
tp1579
a(I1462
I790
I1580
tp1580
a(I1462
I790
I1581
tp1581
a(I1463
I791
I1582
tp1582
a(I1463
I791
I1583
tp1583
a(I1464
I792
I1584
tp1584
a(I1464
I792
I1585
tp1585
a(I1465
I793
I1586
tp1586
a(I1465
I793
I1587
tp1587
a(I1466
I794
I1588
tp1588
a(I1466
I794
I1589
tp1589
a(I1467
I795
I1590
tp1590
a(I1467
I795
I1591
tp1591
a(I1468
I796
I1592
tp1592
a(I1468
I796
I1593
tp1593
a(I1469
I797
I1594
tp1594
a(I1469
I797
I1595
tp1595
a(I1470
I798
I1596
tp1596
a(I1470
I798
I1597
tp1597
a(I1471
I799
I1598
tp1598
a(I1471
I799
I1599
tp1599
a(I1472
I800
I1600
tp1600
a(I1472
I800
I1601
tp1601
a(I1473
I801
I1602
tp1602
a(I1473
I801
I1603
tp1603
a(I1474
I802
I1604
tp1604
a(I1474
I802
I1605
tp1605
a(I1475
I803
I1606
tp1606
a(I1475
I803
I1607
tp1607
a(I1476
I804
I1608
tp1608
a(I1476
I804
I1609
tp1609
a(I1477
I805
I1610
tp1610
a(I1477
I805
I1611
tp1611
a(I1478
I806
I1612
tp1612
a(I1478
I806
I1613
tp1613
a(I1479
I807
I1614
tp1614
a(I1479
I807
I1615
tp1615
a(I1480
I808
I1616
tp1616
a(I1480
I808
I1617
tp1617
a(I1481
I809
I1618
tp1618
a(I1481
I809
I1619
tp1619
a(I1482
I810
I1620
tp1620
a(I1482
I810
I1621
tp1621
a(I1483
I811
I1622
tp1622
a(I1483
I811
I1623
tp1623
a(I1484
I812
I1624
tp1624
a(I1484
I812
I1625
tp1625
a(I1485
I813
I1626
tp1626
a(I1485
I813
I1627
tp1627
a(I1486
I814
I1628
tp1628
a(I1486
I814
I1629
tp1629
a(I1487
I815
I1630
tp1630
a(I1487
I815
I1631
tp1631
a(I1488
I816
I1632
tp1632
a(I1488
I816
I1633
tp1633
a(I1489
I817
I1634
tp1634
a(I1489
I817
I1635
tp1635
a(I1490
I818
I1636
tp1636
a(I1490
I818
I1637
tp1637
a(I1491
I819
I1638
tp1638
a(I1491
I819
I1639
tp1639
a(I1492
I820
I1640
tp1640
a(I1492
I820
I1641
tp1641
a(I1493
I821
I1642
tp1642
a(I1493
I821
I1643
tp1643
a(I1494
I822
I1644
tp1644
a(I1494
I822
I1645
tp1645
a(I1495
I823
I1646
tp1646
a(I1495
I823
I1647
tp1647
a(I1496
I824
I1648
tp1648
a(I1496
I824
I1649
tp1649
a(I1497
I825
I1650
tp1650
a(I1497
I825
I1651
tp1651
a(I1498
I826
I1652
tp1652
a(I1498
I826
I1653
tp1653
a(I1499
I827
I1654
tp1654
a(I1499
I827
I1655
tp1655
a(I1500
I828
I1656
tp1656
a(I1500
I828
I1657
tp1657
a(I1501
I829
I1658
tp1658
a(I1501
I829
I1659
tp1659
a(I1502
I830
I1660
tp1660
a(I1502
I830
I1661
tp1661
a(I1503
I831
I1662
tp1662
a(I1503
I831
I1663
tp1663
a(I1504
I832
I1664
tp1664
a(I1504
I832
I1665
tp1665
a(I1505
I833
I1666
tp1666
a(I1505
I833
I1667
tp1667
a(I1506
I834
I1668
tp1668
a(I1506
I834
I1669
tp1669
a(I1507
I835
I1670
tp1670
a(I1507
I835
I1671
tp1671
a(I1508
I836
I1672
tp1672
a(I1508
I836
I1673
tp1673
a(I1509
I837
I1674
tp1674
a(I1509
I837
I1675
tp1675
a(I1510
I838
I1676
tp1676
a(I1510
I838
I1677
tp1677
a(I1511
I839
I1678
tp1678
a(I1511
I839
I1679
tp1679
a(I1512
I840
I1680
tp1680
a(I1512
I840
I1681
tp1681
a(I1513
I841
I1682
tp1682
a(I1513
I841
I1683
tp1683
a(I1514
I842
I1684
tp1684
a(I1514
I842
I1685
tp1685
a(I1515
I843
I1686
tp1686
a(I1515
I843
I1687
tp1687
a(I1516
I844
I1688
tp1688
a(I1516
I844
I1689
tp1689
a(I1517
I845
I1690
tp1690
a(I1517
I845
I1691
tp1691
a(I1518
I846
I1692
tp1692
a(I1518
I846
I1693
tp1693
a(I1519
I847
I1694
tp1694
a(I1519
I847
I1695
tp1695
a(I1520
I848
I1696
tp1696
a(I1520
I848
I1697
tp1697
a(I1521
I849
I1698
tp1698
a(I1521
I849
I1699
tp1699
a(I1522
I850
I1700
tp1700
a(I1522
I850
I1701
tp1701
a(I1523
I851
I1702
tp1702
a(I1523
I851
I1703
tp1703
a(I1524
I852
I1704
tp1704
a(I1524
I852
I1705
tp1705
a(I1525
I853
I1706
tp1706
a(I1525
I853
I1707
tp1707
a(I1526
I854
I1708
tp1708
a(I1526
I854
I1709
tp1709
a(I1527
I855
I1710
tp1710
a(I1527
I855
I1711
tp1711
a(I1528
I856
I1712
tp1712
a(I1528
I856
I1713
tp1713
a(I1529
I857
I1714
tp1714
a(I1529
I857
I1715
tp1715
a(I1530
I858
I1716
tp1716
a(I1530
I858
I1717
tp1717
a(I1531
I859
I1718
tp1718
a(I1531
I859
I1719
tp1719
a(I1532
I860
I1720
tp1720
a(I1532
I860
I1721
tp1721
a(I1533
I861
I1722
tp1722
a(I1533
I861
I1723
tp1723
a(I1534
I862
I1724
tp1724
a(I1534
I862
I1725
tp1725
a(I1535
I863
I1726
tp1726
a(I1535
I863
I1727
tp1727
a(I1536
I864
I1728
tp1728
a(I1536
I864
I1729
tp1729
a(I1537
I865
I1730
tp1730
a(I1537
I865
I1731
tp1731
a(I1538
I866
I1732
tp1732
a(I1538
I866
I1733
tp1733
a(I1539
I867
I1734
tp1734
a(I1539
I867
I1735
tp1735
a(I1540
I868
I1736
tp1736
a(I1540
I868
I1737
tp1737
a(I1541
I869
I1738
tp1738
a(I1541
I869
I1739
tp1739
a(I1542
I870
I1740
tp1740
a(I1542
I870
I1741
tp1741
a(I1543
I871
I1742
tp1742
a(I1543
I871
I1743
tp1743
a(I1544
I872
I1744
tp1744
a(I1544
I872
I1745
tp1745
a(I1545
I873
I1746
tp1746
a(I1545
I873
I1747
tp1747
a(I1546
I874
I1748
tp1748
a(I1546
I874
I1749
tp1749
a(I1547
I875
I1750
tp1750
a(I1547
I875
I1751
tp1751
a(I1548
I876
I1752
tp1752
a(I1548
I876
I1753
tp1753
a(I1549
I877
I1754
tp1754
a(I1549
I877
I1755
tp1755
a(I1550
I878
I1756
tp1756
a(I1550
I878
I1757
tp1757
a(I1551
I879
I1758
tp1758
a(I1551
I879
I1759
tp1759
a(I1552
I880
I1760
tp1760
a(I1552
I880
I1761
tp1761
a(I1553
I881
I1762
tp1762
a(I1553
I881
I1763
tp1763
a(I1554
I882
I1764
tp1764
a(I1554
I882
I1765
tp1765
a(I1555
I883
I1766
tp1766
a(I1555
I883
I1767
tp1767
a(I1556
I884
I1768
tp1768
a(I1556
I884
I1769
tp1769
a(I1557
I885
I1770
tp1770
a(I1557
I885
I1771
tp1771
a(I1558
I886
I1772
tp1772
a(I1558
I886
I1773
tp1773
a(I1559
I887
I1774
tp1774
a(I1559
I887
I1775
tp1775
a(I1560
I888
I1776
tp1776
a(I1560
I888
I1777
tp1777
a(I1561
I889
I1778
tp1778
a(I1561
I889
I1779
tp1779
a(I1562
I890
I1780
tp1780
a(I1562
I890
I1781
tp1781
a(I1563
I891
I1782
tp1782
a(I1563
I891
I1783
tp1783
a(I1564
I892
I1784
tp1784
a(I1564
I892
I1785
tp1785
a(I1565
I893
I1786
tp1786
a(I1565
I893
I1787
tp1787
a(I1566
I894
I1788
tp1788
a(I1566
I894
I1789
tp1789
a(I1567
I895
I1790
tp1790
a(I1567
I895
I1791
tp1791
a(I1568
I896
I1792
tp1792
a(I1568
I896
I1793
tp1793
a(I1569
I897
I1794
tp1794
a(I1569
I897
I1795
tp1795
a(I1570
I898
I1796
tp1796
a(I1570
I898
I1797
tp1797
a(I1571
I899
I1798
tp1798
a(I1571
I899
I1799
tp1799
a(I1572
I900
I1800
tp1800
a(I1572
I900
I1801
tp1801
a(I1573
I901
I1802
tp1802
a(I1573
I901
I1803
tp1803
a(I1574
I902
I1804
tp1804
a(I1574
I902
I1805
tp1805
a(I1575
I903
I1806
tp1806
a(I1575
I903
I1807
tp1807
a(I1576
I904
I1808
tp1808
a(I1576
I904
I1809
tp1809
a(I1577
I905
I1810
tp1810
a(I1577
I905
I1811
tp1811
a(I1578
I906
I1812
tp1812
a(I1578
I906
I1813
tp1813
a(I1579
I907
I1814
tp1814
a(I1579
I907
I1815
tp1815
a(I1580
I908
I1816
tp1816
a(I1580
I908
I1817
tp1817
a(I1581
I909
I1818
tp1818
a(I1581
I909
I1819
tp1819
a(I1582
I910
I1820
tp1820
a(I1582
I910
I1821
tp1821
a(I1583
I911
I1822
tp1822
a(I1583
I911
I1823
tp1823
a(I1584
I912
I1824
tp1824
a(I1584
I912
I1825
tp1825
a(I1585
I913
I1826
tp1826
a(I1585
I913
I1827
tp1827
a(I1586
I914
I1828
tp1828
a(I1586
I914
I1829
tp1829
a(I1587
I915
I1830
tp1830
a(I1587
I915
I1831
tp1831
a(I1588
I916
I1832
tp1832
a(I1588
I916
I1833
tp1833
a(I1589
I917
I1834
tp1834
a(I1589
I917
I1835
tp1835
a(I1590
I918
I1836
tp1836
a(I1590
I918
I1837
tp1837
a(I1591
I919
I1838
tp1838
a(I1591
I919
I1839
tp1839
a(I1592
I920
I1840
tp1840
a(I1592
I920
I1841
tp1841
a(I1593
I921
I1842
tp1842
a(I1593
I921
I1843
tp1843
a(I1594
I922
I1844
tp1844
a(I1594
I922
I1845
tp1845
a(I1595
I923
I1846
tp1846
a(I1595
I923
I1847
tp1847
a(I1596
I924
I1848
tp1848
a(I1596
I924
I1849
tp1849
a(I1597
I925
I1850
tp1850
a(I1597
I925
I1851
tp1851
a(I1598
I926
I1852
tp1852
a(I1598
I926
I1853
tp1853
a(I1599
I927
I1854
tp1854
a(I1599
I927
I1855
tp1855
a(I1600
I928
I1856
tp1856
a(I1600
I928
I1857
tp1857
a(I1601
I929
I1858
tp1858
a(I1601
I929
I1859
tp1859
a(I1602
I930
I1860
tp1860
a(I1602
I930
I1861
tp1861
a(I1603
I931
I1862
tp1862
a(I1603
I931
I1863
tp1863
a(I1604
I932
I1864
tp1864
a(I1604
I932
I1865
tp1865
a(I1605
I933
I1866
tp1866
a(I1605
I933
I1867
tp1867
a(I1606
I934
I1868
tp1868
a(I1606
I934
I1869
tp1869
a(I1607
I935
I1870
tp1870
a(I1607
I935
I1871
tp1871
a(I1608
I936
I1872
tp1872
a(I1608
I936
I1873
tp1873
a(I1609
I937
I1874
tp1874
a(I1609
I937
I1875
tp1875
a(I1610
I938
I1876
tp1876
a(I1610
I938
I1877
tp1877
a(I1611
I939
I1878
tp1878
a(I1611
I939
I1879
tp1879
a(I1612
I940
I1880
tp1880
a(I1612
I940
I1881
tp1881
a(I1613
I941
I1882
tp1882
a(I1613
I941
I1883
tp1883
a(I1614
I942
I1884
tp1884
a(I1614
I942
I1885
tp1885
a(I1615
I943
I1886
tp1886
a(I1615
I943
I1887
tp1887
a(I1616
I944
I1888
tp1888
a(I1616
I944
I1889
tp1889
a(I1617
I945
I1890
tp1890
a(I1617
I945
I1891
tp1891
a(I1618
I946
I1892
tp1892
a(I1618
I946
I1893
tp1893
a(I1619
I947
I1894
tp1894
a(I1619
I947
I1895
tp1895
a(I1620
I948
I1896
tp1896
a(I1620
I948
I1897
tp1897
a(I1621
I949
I1898
tp1898
a(I1621
I949
I1899
tp1899
a(I1622
I950
I1900
tp1900
a(I1622
I950
I1901
tp1901
a(I1623
I951
I1902
tp1902
a(I1623
I951
I1903
tp1903
a(I1624
I952
I1904
tp1904
a(I1624
I952
I1905
tp1905
a(I1625
I953
I1906
tp1906
a(I1625
I953
I1907
tp1907
a(I1626
I954
I1908
tp1908
a(I1626
I954
I1909
tp1909
a(I1627
I955
I1910
tp1910
a(I1627
I955
I1911
tp1911
a(I1628
I956
I1912
tp1912
a(I1628
I956
I1913
tp1913
a(I1629
I957
I1914
tp1914
a(I1629
I957
I1915
tp1915
a(I1630
I958
I1916
tp1916
a(I1630
I958
I1917
tp1917
a(I1631
I959
I1918
tp1918
a(I1631
I959
I1919
tp1919
a(I1632
I960
I1920
tp1920
a(I1632
I960
I1921
tp1921
a(I1633
I961
I1922
tp1922
a(I1633
I961
I1923
tp1923
a(I1634
I962
I1924
tp1924
a(I1634
I962
I1925
tp1925
a(I1635
I963
I1926
tp1926
a(I1635
I963
I1927
tp1927
a(I1636
I964
I1928
tp1928
a(I1636
I964
I1929
tp1929
a(I1637
I965
I1930
tp1930
a(I1637
I965
I1931
tp1931
a(I1638
I966
I1932
tp1932
a(I1638
I966
I1933
tp1933
a(I1639
I967
I1934
tp1934
a(I1639
I967
I1935
tp1935
a(I1640
I968
I1936
tp1936
a(I1640
I968
I1937
tp1937
a(I1641
I969
I1938
tp1938
a(I1641
I969
I1939
tp1939
a(I1642
I970
I1940
tp1940
a(I1642
I970
I1941
tp1941
a(I1643
I971
I1942
tp1942
a(I1643
I971
I1943
tp1943
a(I1644
I972
I1944
tp1944
a(I1644
I972
I1945
tp1945
a(I1645
I973
I1946
tp1946
a(I1645
I973
I1947
tp1947
a(I1646
I974
I1948
tp1948
a(I1646
I974
I1949
tp1949
a(I1647
I975
I1950
tp1950
a(I1647
I975
I1951
tp1951
a(I1648
I976
I1952
tp1952
a(I1648
I976
I1953
tp1953
a(I1649
I977
I1954
tp1954
a(I1649
I977
I1955
tp1955
a(I1650
I978
I1956
tp1956
a(I1650
I978
I1957
tp1957
a(I1651
I979
I1958
tp1958
a(I1651
I979
I1959
tp1959
a(I1652
I980
I1960
tp1960
a(I1652
I980
I1961
tp1961
a(I1653
I981
I1962
tp1962
a(I1653
I981
I1963
tp1963
a(I1654
I982
I1964
tp1964
a(I1654
I982
I1965
tp1965
a(I1655
I983
I1966
tp1966
a(I1655
I983
I1967
tp1967
a(I1656
I984
I1968
tp1968
a(I1656
I984
I1969
tp1969
a(I1657
I985
I1970
tp1970
a(I1657
I985
I1971
tp1971
a(I1658
I986
I1972
tp1972
a(I1658
I986
I1973
tp1973
a(I1659
I987
I1974
tp1974
a(I1659
I987
I1975
tp1975
a(I1660
I988
I1976
tp1976
a(I1660
I988
I1977
tp1977
a(I1661
I989
I1978
tp1978
a(I1661
I989
I1979
tp1979
a(I1662
I990
I1980
tp1980
a(I1662
I990
I1981
tp1981
a(I1663
I991
I1982
tp1982
a(I1663
I991
I1983
tp1983
a(I1664
I992
I1984
tp1984
a(I1664
I992
I1985
tp1985
a(I1665
I993
I1986
tp1986
a(I1665
I993
I1987
tp1987
a(I1666
I994
I1988
tp1988
a(I1666
I994
I1989
tp1989
a(I1667
I995
I1990
tp1990
a(I1667
I995
I1991
tp1991
a(I1668
I996
I1992
tp1992
a(I1668
I996
I1993
tp1993
a(I1669
I997
I1994
tp1994
a(I1669
I997
I1995
tp1995
a(I1670
I998
I1996
tp1996
a(I1670
I998
I1997
tp1997
a(I1671
I999
I1998
tp1998
a(I1671
I999
I1999
tp1999
a(I1672
I1000
I2000
tp2000
a(I1672
I1000
I2001
tp2001
a(I1673
I1001
I2002
tp2002
a(I1673
I1001
I2003
tp2003
a(I1674
I1002
I2004
tp2004
a(I1674
I1002
I2005
tp2005
a(I1675
I1003
I2006
tp2006
a(I1675
I1003
I2007
tp2007
a(I1676
I1004
I2008
tp2008
a(I1676
I1004
I2009
tp2009
a(I1677
I1005
I2010
tp2010
a(I1677
I1005
I2011
tp2011
a(I1678
I1006
I2012
tp2012
a(I1678
I1006
I2013
tp2013
a(I1679
I1007
I2014
tp2014
a(I1679
I1007
I2015
tp2015
a(I1680
I1008
I2016
tp2016
a(I1680
I1008
I2017
tp2017
a(I1681
I1009
I2018
tp2018
a(I1681
I1009
I2019
tp2019
a(I1682
I1010
I2020
tp2020
a(I1682
I1010
I2021
tp2021
a(I1683
I1011
I2022
tp2022
a(I1683
I1011
I2023
tp2023
a(I1684
I1012
I2024
tp2024
a(I1684
I1012
I2025
tp2025
a(I1685
I1013
I2026
tp2026
a(I1685
I1013
I2027
tp2027
a(I1686
I1014
I2028
tp2028
a(I1686
I1014
I2029
tp2029
a(I1687
I1015
I2030
tp2030
a(I1687
I1015
I2031
tp2031
a(I1688
I1016
I2032
tp2032
a(I1688
I1016
I2033
tp2033
a(I1689
I1017
I2034
tp2034
a(I1689
I1017
I2035
tp2035
a(I1690
I1018
I2036
tp2036
a(I1690
I1018
I2037
tp2037
a(I1691
I1019
I2038
tp2038
a(I1691
I1019
I2039
tp2039
a(I1692
I1020
I2040
tp2040
a(I1692
I1020
I2041
tp2041
a(I1693
I1021
I2042
tp2042
a(I1693
I1021
I2043
tp2043
a(I1694
I1022
I2044
tp2044
a(I1694
I1022
I2045
tp2045
a(I1695
I1023
I2046
tp2046
a(I1695
I1023
I2047
tp2047
a(I1696
I1024
I2048
tp2048
a(I1696
I1024
I2049
tp2049
a(I1697
I1025
I2050
tp2050
a(I1697
I1025
I2051
tp2051
a(I1698
I1026
I2052
tp2052
a(I1698
I1026
I2053
tp2053
a(I1699
I1027
I2054
tp2054
a(I1699
I1027
I2055
tp2055
a(I1700
I1028
I2056
tp2056
a(I1700
I1028
I2057
tp2057
a(I1701
I1029
I2058
tp2058
a(I1701
I1029
I2059
tp2059
a(I1702
I1030
I2060
tp2060
a(I1702
I1030
I2061
tp2061
a(I1703
I1031
I2062
tp2062
a(I1703
I1031
I2063
tp2063
a(I1704
I1032
I2064
tp2064
a(I1704
I1032
I2065
tp2065
a(I1705
I1033
I2066
tp2066
a(I1705
I1033
I2067
tp2067
a(I1706
I1034
I2068
tp2068
a(I1706
I1034
I2069
tp2069
a(I1707
I1035
I2070
tp2070
a(I1707
I1035
I2071
tp2071
a(I1708
I1036
I2072
tp2072
a(I1708
I1036
I2073
tp2073
a(I1709
I1037
I2074
tp2074
a(I1709
I1037
I2075
tp2075
a(I1710
I1038
I2076
tp2076
a(I1710
I1038
I2077
tp2077
a(I1711
I1039
I2078
tp2078
a(I1711
I1039
I2079
tp2079
a(I1712
I1040
I2080
tp2080
a(I1712
I1040
I2081
tp2081
a(I1713
I1041
I2082
tp2082
a(I1713
I1041
I2083
tp2083
a(I1714
I1042
I2084
tp2084
a(I1714
I1042
I2085
tp2085
a(I1715
I1043
I2086
tp2086
a(I1715
I1043
I2087
tp2087
a(I1716
I1044
I2088
tp2088
a(I1716
I1044
I2089
tp2089
a(I1717
I1045
I2090
tp2090
a(I1717
I1045
I2091
tp2091
a(I1718
I1046
I2092
tp2092
a(I1718
I1046
I2093
tp2093
a(I1719
I1047
I2094
tp2094
a(I1719
I1047
I2095
tp2095
a(I1720
I1048
I2096
tp2096
a(I1720
I1048
I2097
tp2097
a(I1721
I1049
I2098
tp2098
a(I1721
I1049
I2099
tp2099
a(I1722
I1050
I2100
tp2100
a(I1722
I1050
I2101
tp2101
a(I1723
I1051
I2102
tp2102
a(I1723
I1051
I2103
tp2103
a(I1724
I1052
I2104
tp2104
a(I1724
I1052
I2105
tp2105
a(I1725
I1053
I2106
tp2106
a(I1725
I1053
I2107
tp2107
a(I1726
I1054
I2108
tp2108
a(I1726
I1054
I2109
tp2109
a(I1727
I1055
I2110
tp2110
a(I1727
I1055
I2111
tp2111
a(I1728
I1056
I2112
tp2112
a(I1728
I1056
I2113
tp2113
a(I1729
I1057
I2114
tp2114
a(I1729
I1057
I2115
tp2115
a(I1730
I1058
I2116
tp2116
a(I1730
I1058
I2117
tp2117
a(I1731
I1059
I2118
tp2118
a(I1731
I1059
I2119
tp2119
a(I1732
I1060
I2120
tp2120
a(I1732
I1060
I2121
tp2121
a(I1733
I1061
I2122
tp2122
a(I1733
I1061
I2123
tp2123
a(I1734
I1062
I2124
tp2124
a(I1734
I1062
I2125
tp2125
a(I1735
I1063
I2126
tp2126
a(I1735
I1063
I2127
tp2127
a(I1736
I1064
I2128
tp2128
a(I1736
I1064
I2129
tp2129
a(I1737
I1065
I2130
tp2130
a(I1737
I1065
I2131
tp2131
a(I1738
I1066
I2132
tp2132
a(I1738
I1066
I2133
tp2133
a(I1739
I1067
I2134
tp2134
a(I1739
I1067
I2135
tp2135
a(I1740
I1068
I2136
tp2136
a(I1740
I1068
I2137
tp2137
a(I1741
I1069
I2138
tp2138
a(I1741
I1069
I2139
tp2139
a(I1742
I1070
I2140
tp2140
a(I1742
I1070
I2141
tp2141
a(I1743
I1071
I2142
tp2142
a(I1743
I1071
I2143
tp2143
a(I1744
I1072
I2144
tp2144
a(I1744
I1072
I2145
tp2145
a(I1745
I1073
I2146
tp2146
a(I1745
I1073
I2147
tp2147
a(I1746
I1074
I2148
tp2148
a(I1746
I1074
I2149
tp2149
a(I1747
I1075
I2150
tp2150
a(I1747
I1075
I2151
tp2151
a(I1748
I1076
I2152
tp2152
a(I1748
I1076
I2153
tp2153
a(I1749
I1077
I2154
tp2154
a(I1749
I1077
I2155
tp2155
a(I1750
I1078
I2156
tp2156
a(I1750
I1078
I2157
tp2157
a(I1751
I1079
I2158
tp2158
a(I1751
I1079
I2159
tp2159
a(I1752
I1080
I2160
tp2160
a(I1752
I1080
I2161
tp2161
a(I1753
I1081
I2162
tp2162
a(I1753
I1081
I2163
tp2163
a(I1754
I1082
I2164
tp2164
a(I1754
I1082
I2165
tp2165
a(I1755
I1083
I2166
tp2166
a(I1755
I1083
I2167
tp2167
a(I1756
I1084
I2168
tp2168
a(I1756
I1084
I2169
tp2169
a(I1757
I1085
I2170
tp2170
a(I1757
I1085
I2171
tp2171
a(I1758
I1086
I2172
tp2172
a(I1758
I1086
I2173
tp2173
a(I1759
I1087
I2174
tp2174
a(I1759
I1087
I2175
tp2175
a(I1760
I1088
I2176
tp2176
a(I1760
I1088
I2177
tp2177
a(I1761
I1089
I2178
tp2178
a(I1761
I1089
I2179
tp2179
a(I1762
I1090
I2180
tp2180
a(I1762
I1090
I2181
tp2181
a(I1763
I1091
I2182
tp2182
a(I1763
I1091
I2183
tp2183
a(I1764
I1092
I2184
tp2184
a(I1764
I1092
I2185
tp2185
a(I1765
I1093
I2186
tp2186
a(I1765
I1093
I2187
tp2187
a(I1766
I1094
I2188
tp2188
a(I1766
I1094
I2189
tp2189
a(I1767
I1095
I2190
tp2190
a(I1767
I1095
I2191
tp2191
a(I1768
I1096
I2192
tp2192
a(I1768
I1096
I2193
tp2193
a(I1769
I1097
I2194
tp2194
a(I1769
I1097
I2195
tp2195
a(I1770
I1098
I2196
tp2196
a(I1770
I1098
I2197
tp2197
a(I1771
I1099
I2198
tp2198
a(I1771
I1099
I2199
tp2199
a(I1772
I1100
I2200
tp2200
a(I1772
I1100
I2201
tp2201
a(I1773
I1101
I2202
tp2202
a(I1773
I1101
I2203
tp2203
a(I1774
I1102
I2204
tp2204
a(I1774
I1102
I2205
tp2205
a(I1775
I1103
I2206
tp2206
a(I1775
I1103
I2207
tp2207
a(I1776
I1104
I2208
tp2208
a(I1776
I1104
I2209
tp2209
a(I1777
I1105
I2210
tp2210
a(I1777
I1105
I2211
tp2211
a(I1778
I1106
I2212
tp2212
a(I1778
I1106
I2213
tp2213
a(I1779
I1107
I2214
tp2214
a(I1779
I1107
I2215
tp2215
a(I1780
I1108
I2216
tp2216
a(I1780
I1108
I2217
tp2217
a(I1781
I1109
I2218
tp2218
a(I1781
I1109
I2219
tp2219
a(I1782
I1110
I2220
tp2220
a(I1782
I1110
I2221
tp2221
a(I1783
I1111
I2222
tp2222
a(I1783
I1111
I2223
tp2223
a(I1784
I1112
I2224
tp2224
a(I1784
I1112
I2225
tp2225
a(I1785
I1113
I2226
tp2226
a(I1785
I1113
I2227
tp2227
a(I1786
I1114
I2228
tp2228
a(I1786
I1114
I2229
tp2229
a(I1787
I1115
I2230
tp2230
a(I1787
I1115
I2231
tp2231
a(I1788
I1116
I2232
tp2232
a(I1788
I1116
I2233
tp2233
a(I1789
I1117
I2234
tp2234
a(I1789
I1117
I2235
tp2235
a(I1790
I1118
I2236
tp2236
a(I1790
I1118
I2237
tp2237
a(I1791
I1119
I2238
tp2238
a(I1791
I1119
I2239
tp2239
a(I1792
I1120
I2240
tp2240
a(I1792
I1120
I2241
tp2241
a(I1793
I1121
I2242
tp2242
a(I1793
I1121
I2243
tp2243
a(I1794
I1122
I2244
tp2244
a(I1794
I1122
I2245
tp2245
a(I1795
I1123
I2246
tp2246
a(I1795
I1123
I2247
tp2247
a(I1796
I1124
I2248
tp2248
a(I1796
I1124
I2249
tp2249
a(I1797
I1125
I2250
tp2250
a(I1797
I1125
I2251
tp2251
a(I1798
I1126
I2252
tp2252
a(I1798
I1126
I2253
tp2253
a(I1799
I1127
I2254
tp2254
a(I1799
I1127
I2255
tp2255
a(I1800
I1128
I2256
tp2256
a(I1800
I1128
I2257
tp2257
a(I1801
I1129
I2258
tp2258
a(I1801
I1129
I2259
tp2259
a(I1802
I1130
I2260
tp2260
a(I1802
I1130
I2261
tp2261
a(I1803
I1131
I2262
tp2262
a(I1803
I1131
I2263
tp2263
a(I1804
I1132
I2264
tp2264
a(I1804
I1132
I2265
tp2265
a(I1805
I1133
I2266
tp2266
a(I1805
I1133
I2267
tp2267
a(I1806
I1134
I2268
tp2268
a(I1806
I1134
I2269
tp2269
a(I1807
I1135
I2270
tp2270
a(I1807
I1135
I2271
tp2271
a(I1808
I1136
I2272
tp2272
a(I1808
I1136
I2273
tp2273
a(I1809
I1137
I2274
tp2274
a(I1809
I1137
I2275
tp2275
a(I1810
I1138
I2276
tp2276
a(I1810
I1138
I2277
tp2277
a(I1811
I1139
I2278
tp2278
a(I1811
I1139
I2279
tp2279
a(I1812
I1140
I2280
tp2280
a(I1812
I1140
I2281
tp2281
a(I1813
I1141
I2282
tp2282
a(I1813
I1141
I2283
tp2283
a(I1814
I1142
I2284
tp2284
a(I1814
I1142
I2285
tp2285
a(I1815
I1143
I2286
tp2286
a(I1815
I1143
I2287
tp2287
a(I1816
I1144
I2288
tp2288
a(I1816
I1144
I2289
tp2289
a(I1817
I1145
I2290
tp2290
a(I1817
I1145
I2291
tp2291
a(I1818
I1146
I2292
tp2292
a(I1818
I1146
I2293
tp2293
a(I1819
I1147
I2294
tp2294
a(I1819
I1147
I2295
tp2295
a(I1820
I1148
I2296
tp2296
a(I1820
I1148
I2297
tp2297
a(I1821
I1149
I2298
tp2298
a(I1821
I1149
I2299
tp2299
a(I1822
I1150
I2300
tp2300
a(I1822
I1150
I2301
tp2301
a(I1823
I1151
I2302
tp2302
a(I1823
I1151
I2303
tp2303
a(I1824
I1152
I2304
tp2304
a(I1824
I1152
I2305
tp2305
a(I1825
I1153
I2306
tp2306
a(I1825
I1153
I2307
tp2307
a(I1826
I1154
I2308
tp2308
a(I1826
I1154
I2309
tp2309
a(I1827
I1155
I2310
tp2310
a(I1827
I1155
I2311
tp2311
a(I1828
I1156
I2312
tp2312
a(I1828
I1156
I2313
tp2313
a(I1829
I1157
I2314
tp2314
a(I1829
I1157
I2315
tp2315
a(I1830
I1158
I2316
tp2316
a(I1830
I1158
I2317
tp2317
a(I1831
I1159
I2318
tp2318
a(I1831
I1159
I2319
tp2319
a(I1832
I1160
I2320
tp2320
a(I1832
I1160
I2321
tp2321
a(I1833
I1161
I2322
tp2322
a(I1833
I1161
I2323
tp2323
a(I1834
I1162
I2324
tp2324
a(I1834
I1162
I2325
tp2325
a(I1835
I1163
I2326
tp2326
a(I1835
I1163
I2327
tp2327
a(I1836
I1164
I2328
tp2328
a(I1836
I1164
I2329
tp2329
a(I1837
I1165
I2330
tp2330
a(I1837
I1165
I2331
tp2331
a(I1838
I1166
I2332
tp2332
a(I1838
I1166
I2333
tp2333
a(I1839
I1167
I2334
tp2334
a(I1839
I1167
I2335
tp2335
a(I1840
I1168
I2336
tp2336
a(I1840
I1168
I2337
tp2337
a(I1841
I1169
I2338
tp2338
a(I1841
I1169
I2339
tp2339
a(I1842
I1170
I2340
tp2340
a(I1842
I1170
I2341
tp2341
a(I1843
I1171
I2342
tp2342
a(I1843
I1171
I2343
tp2343
a(I1844
I1172
I2344
tp2344
a(I1844
I1172
I2345
tp2345
a(I1845
I1173
I2346
tp2346
a(I1845
I1173
I2347
tp2347
a(I1846
I1174
I2348
tp2348
a(I1846
I1174
I2349
tp2349
a(I1847
I1175
I2350
tp2350
a(I1847
I1175
I2351
tp2351
a(I1848
I1176
I2352
tp2352
a(I1848
I1176
I2353
tp2353
a(I1849
I1177
I2354
tp2354
a(I1849
I1177
I2355
tp2355
a(I1850
I1178
I2356
tp2356
a(I1850
I1178
I2357
tp2357
a(I1851
I1179
I2358
tp2358
a(I1851
I1179
I2359
tp2359
a(I1852
I1180
I2360
tp2360
a(I1852
I1180
I2361
tp2361
a(I1853
I1181
I2362
tp2362
a(I1853
I1181
I2363
tp2363
a(I1854
I1182
I2364
tp2364
a(I1854
I1182
I2365
tp2365
a(I1855
I1183
I2366
tp2366
a(I1855
I1183
I2367
tp2367
a(I1856
I1184
I2368
tp2368
a(I1856
I1184
I2369
tp2369
a(I1857
I1185
I2370
tp2370
a(I1857
I1185
I2371
tp2371
a(I1858
I1186
I2372
tp2372
a(I1858
I1186
I2373
tp2373
a(I1859
I1187
I2374
tp2374
a(I1859
I1187
I2375
tp2375
a(I1860
I1188
I2376
tp2376
a(I1860
I1188
I2377
tp2377
a(I1861
I1189
I2378
tp2378
a(I1861
I1189
I2379
tp2379
a(I1862
I1190
I2380
tp2380
a(I1862
I1190
I2381
tp2381
a(I1863
I1191
I2382
tp2382
a(I1863
I1191
I2383
tp2383
a(I1864
I1192
I2384
tp2384
a(I1864
I1192
I2385
tp2385
a(I1865
I1193
I2386
tp2386
a(I1865
I1193
I2387
tp2387
a(I1866
I1194
I2388
tp2388
a(I1866
I1194
I2389
tp2389
a(I1867
I1195
I2390
tp2390
a(I1867
I1195
I2391
tp2391
a(I1868
I1196
I2392
tp2392
a(I1868
I1196
I2393
tp2393
a(I1869
I1197
I2394
tp2394
a(I1869
I1197
I2395
tp2395
a(I1870
I1198
I2396
tp2396
a(I1870
I1198
I2397
tp2397
a(I1871
I1199
I2398
tp2398
a(I1871
I1199
I2399
tp2399
a(I1872
I1200
I2400
tp2400
a(I1872
I1200
I2401
tp2401
a(I1873
I1201
I2402
tp2402
a(I1873
I1201
I2403
tp2403
a(I1874
I1202
I2404
tp2404
a(I1874
I1202
I2405
tp2405
a(I1875
I1203
I2406
tp2406
a(I1875
I1203
I2407
tp2407
a(I1876
I1204
I2408
tp2408
a(I1876
I1204
I2409
tp2409
a(I1877
I1205
I2410
tp2410
a(I1877
I1205
I2411
tp2411
a(I1878
I1206
I2412
tp2412
a(I1878
I1206
I2413
tp2413
a(I1879
I1207
I2414
tp2414
a(I1879
I1207
I2415
tp2415
a(I1880
I1208
I2416
tp2416
a(I1880
I1208
I2417
tp2417
a(I1881
I1209
I2418
tp2418
a(I1881
I1209
I2419
tp2419
a(I1882
I1210
I2420
tp2420
a(I1882
I1210
I2421
tp2421
a(I1883
I1211
I2422
tp2422
a(I1883
I1211
I2423
tp2423
a(I1884
I1212
I2424
tp2424
a(I1884
I1212
I2425
tp2425
a(I1885
I1213
I2426
tp2426
a(I1885
I1213
I2427
tp2427
a(I1886
I1214
I2428
tp2428
a(I1886
I1214
I2429
tp2429
a(I1887
I1215
I2430
tp2430
a(I1887
I1215
I2431
tp2431
a(I1888
I1216
I2432
tp2432
a(I1888
I1216
I2433
tp2433
a(I1889
I1217
I2434
tp2434
a(I1889
I1217
I2435
tp2435
a(I1890
I1218
I2436
tp2436
a(I1890
I1218
I2437
tp2437
a(I1891
I1219
I2438
tp2438
a(I1891
I1219
I2439
tp2439
a(I1892
I1220
I2440
tp2440
a(I1892
I1220
I2441
tp2441
a(I1893
I1221
I2442
tp2442
a(I1893
I1221
I2443
tp2443
a(I1894
I1222
I2444
tp2444
a(I1894
I1222
I2445
tp2445
a(I1895
I1223
I2446
tp2446
a(I1895
I1223
I2447
tp2447
a(I1896
I1224
I2448
tp2448
a(I1896
I1224
I2449
tp2449
a(I1897
I1225
I2450
tp2450
a(I1897
I1225
I2451
tp2451
a(I1898
I1226
I2452
tp2452
a(I1898
I1226
I2453
tp2453
a(I1899
I1227
I2454
tp2454
a(I1899
I1227
I2455
tp2455
a(I1900
I1228
I2456
tp2456
a(I1900
I1228
I2457
tp2457
a(I1901
I1229
I2458
tp2458
a(I1901
I1229
I2459
tp2459
a(I1902
I1230
I2460
tp2460
a(I1902
I1230
I2461
tp2461
a(I1903
I1231
I2462
tp2462
a(I1903
I1231
I2463
tp2463
a(I1904
I1232
I2464
tp2464
a(I1904
I1232
I2465
tp2465
a(I1905
I1233
I2466
tp2466
a(I1905
I1233
I2467
tp2467
a(I1906
I1234
I2468
tp2468
a(I1906
I1234
I2469
tp2469
a(I1907
I1235
I2470
tp2470
a(I1907
I1235
I2471
tp2471
a(I1908
I1236
I2472
tp2472
a(I1908
I1236
I2473
tp2473
a(I1909
I1237
I2474
tp2474
a(I1909
I1237
I2475
tp2475
a(I1910
I1238
I2476
tp2476
a(I1910
I1238
I2477
tp2477
a(I1911
I1239
I2478
tp2478
a(I1911
I1239
I2479
tp2479
a(I1912
I1240
I2480
tp2480
a(I1912
I1240
I2481
tp2481
a(I1913
I1241
I2482
tp2482
a(I1913
I1241
I2483
tp2483
a(I1914
I1242
I2484
tp2484
a(I1914
I1242
I2485
tp2485
a(I1915
I1243
I2486
tp2486
a(I1915
I1243
I2487
tp2487
a(I1916
I1244
I2488
tp2488
a(I1916
I1244
I2489
tp2489
a(I1917
I1245
I2490
tp2490
a(I1917
I1245
I2491
tp2491
a(I1918
I1246
I2492
tp2492
a(I1918
I1246
I2493
tp2493
a(I1919
I1247
I2494
tp2494
a(I1919
I1247
I2495
tp2495
a(I1920
I1248
I2496
tp2496
a(I1920
I1248
I2497
tp2497
a(I1921
I1249
I2498
tp2498
a(I1921
I1249
I2499
tp2499
a(I1922
I1250
I2500
tp2500
a(I1922
I1250
I2501
tp2501
a(I1923
I1251
I2502
tp2502
a(I1923
I1251
I2503
tp2503
a(I1924
I1252
I2504
tp2504
a(I1924
I1252
I2505
tp2505
a(I1925
I1253
I2506
tp2506
a(I1925
I1253
I2507
tp2507
a(I1926
I1254
I2508
tp2508
a(I1926
I1254
I2509
tp2509
a(I1927
I1255
I2510
tp2510
a(I1927
I1255
I2511
tp2511
a(I1928
I1256
I2512
tp2512
a(I1928
I1256
I2513
tp2513
a(I1929
I1257
I2514
tp2514
a(I1929
I1257
I2515
tp2515
a(I1930
I1258
I2516
tp2516
a(I1930
I1258
I2517
tp2517
a(I1931
I1259
I2518
tp2518
a(I1931
I1259
I2519
tp2519
a(I1932
I1260
I2520
tp2520
a(I1932
I1260
I2521
tp2521
a(I1933
I1261
I2522
tp2522
a(I1933
I1261
I2523
tp2523
a(I1934
I1262
I2524
tp2524
a(I1934
I1262
I2525
tp2525
a(I1935
I1263
I2526
tp2526
a(I1935
I1263
I2527
tp2527
a(I1936
I1264
I2528
tp2528
a(I1936
I1264
I2529
tp2529
a(I1937
I1265
I2530
tp2530
a(I1937
I1265
I2531
tp2531
a(I1938
I1266
I2532
tp2532
a(I1938
I1266
I2533
tp2533
a(I1939
I1267
I2534
tp2534
a(I1939
I1267
I2535
tp2535
a(I1940
I1268
I2536
tp2536
a(I1940
I1268
I2537
tp2537
a(I1941
I1269
I2538
tp2538
a(I1941
I1269
I2539
tp2539
a(I1942
I1270
I2540
tp2540
a(I1942
I1270
I2541
tp2541
a(I1943
I1271
I2542
tp2542
a(I1943
I1271
I2543
tp2543
a(I1944
I1272
I2544
tp2544
a(I1944
I1272
I2545
tp2545
a(I1945
I1273
I2546
tp2546
a(I1945
I1273
I2547
tp2547
a(I1946
I1274
I2548
tp2548
a(I1946
I1274
I2549
tp2549
a(I1947
I1275
I2550
tp2550
a(I1947
I1275
I2551
tp2551
a(I1948
I1276
I2552
tp2552
a(I1948
I1276
I2553
tp2553
a(I1949
I1277
I2554
tp2554
a(I1949
I1277
I2555
tp2555
a(I1950
I1278
I2556
tp2556
a(I1950
I1278
I2557
tp2557
a(I1951
I1279
I2558
tp2558
a(I1951
I1279
I2559
tp2559
a(I1952
I1280
I2560
tp2560
a(I1952
I1280
I2561
tp2561
a(I1953
I1281
I2562
tp2562
a(I1953
I1281
I2563
tp2563
a(I1954
I1282
I2564
tp2564
a(I1954
I1282
I2565
tp2565
a(I1955
I1283
I2566
tp2566
a(I1955
I1283
I2567
tp2567
a(I1956
I1284
I2568
tp2568
a(I1956
I1284
I2569
tp2569
a(I1957
I1285
I2570
tp2570
a(I1957
I1285
I2571
tp2571
a(I1958
I1286
I2572
tp2572
a(I1958
I1286
I2573
tp2573
a(I1959
I1287
I2574
tp2574
a(I1959
I1287
I2575
tp2575
a(I1960
I1288
I2576
tp2576
a(I1960
I1288
I2577
tp2577
a(I1961
I1289
I2578
tp2578
a(I1961
I1289
I2579
tp2579
a(I1962
I1290
I2580
tp2580
a(I1962
I1290
I2581
tp2581
a(I1963
I1291
I2582
tp2582
a(I1963
I1291
I2583
tp2583
a(I1964
I1292
I2584
tp2584
a(I1964
I1292
I2585
tp2585
a(I1965
I1293
I2586
tp2586
a(I1965
I1293
I2587
tp2587
a(I1966
I1294
I2588
tp2588
a(I1966
I1294
I2589
tp2589
a(I1967
I1295
I2590
tp2590
a(I1967
I1295
I2591
tp2591
a(I1968
I1296
I2592
tp2592
a(I1968
I1296
I2593
tp2593
a(I1969
I1297
I2594
tp2594
a(I1969
I1297
I2595
tp2595
a(I1970
I1298
I2596
tp2596
a(I1970
I1298
I2597
tp2597
a(I1971
I1299
I2598
tp2598
a(I1971
I1299
I2599
tp2599
a(I1972
I1300
I2600
tp2600
a(I1972
I1300
I2601
tp2601
a(I1973
I1301
I2602
tp2602
a(I1973
I1301
I2603
tp2603
a(I1974
I1302
I2604
tp2604
a(I1974
I1302
I2605
tp2605
a(I1975
I1303
I2606
tp2606
a(I1975
I1303
I2607
tp2607
a(I1976
I1304
I2608
tp2608
a(I1976
I1304
I2609
tp2609
a(I1977
I1305
I2610
tp2610
a(I1977
I1305
I2611
tp2611
a(I1978
I1306
I2612
tp2612
a(I1978
I1306
I2613
tp2613
a(I1979
I1307
I2614
tp2614
a(I1979
I1307
I2615
tp2615
a(I1980
I1308
I2616
tp2616
a(I1980
I1308
I2617
tp2617
a(I1981
I1309
I2618
tp2618
a(I1981
I1309
I2619
tp2619
a(I1982
I1310
I2620
tp2620
a(I1982
I1310
I2621
tp2621
a(I1983
I1311
I2622
tp2622
a(I1983
I1311
I2623
tp2623
a(I1984
I1312
I2624
tp2624
a(I1984
I1312
I2625
tp2625
a(I1985
I1313
I2626
tp2626
a(I1985
I1313
I2627
tp2627
a(I1986
I1314
I2628
tp2628
a(I1986
I1314
I2629
tp2629
a(I1987
I1315
I2630
tp2630
a(I1987
I1315
I2631
tp2631
a(I1988
I1316
I2632
tp2632
a(I1988
I1316
I2633
tp2633
a(I1989
I1317
I2634
tp2634
a(I1989
I1317
I2635
tp2635
a(I1990
I1318
I2636
tp2636
a(I1990
I1318
I2637
tp2637
a(I1991
I1319
I2638
tp2638
a(I1991
I1319
I2639
tp2639
a(I1992
I1320
I2640
tp2640
a(I1992
I1320
I2641
tp2641
a(I1993
I1321
I2642
tp2642
a(I1993
I1321
I2643
tp2643
a(I1994
I1322
I2644
tp2644
a(I1994
I1322
I2645
tp2645
a(I1995
I1323
I2646
tp2646
a(I1995
I1323
I2647
tp2647
a(I1996
I1324
I2648
tp2648
a(I1996
I1324
I2649
tp2649
a(I1997
I1325
I2650
tp2650
a(I1997
I1325
I2651
tp2651
a(I1998
I1326
I2652
tp2652
a(I1998
I1326
I2653
tp2653
a(I1999
I1327
I2654
tp2654
a(I1999
I1327
I2655
tp2655
a(I2000
I1328
I2656
tp2656
a(I2000
I1328
I2657
tp2657
a(I2001
I1329
I2658
tp2658
a(I2001
I1329
I2659
tp2659
a(I2002
I1330
I2660
tp2660
a(I2002
I1330
I2661
tp2661
a(I2003
I1331
I2662
tp2662
a(I2003
I1331
I2663
tp2663
a(I2004
I1332
I2664
tp2664
a(I2004
I1332
I2665
tp2665
a(I2005
I1333
I2666
tp2666
a(I2005
I1333
I2667
tp2667
a(I2006
I1334
I2668
tp2668
a(I2006
I1334
I2669
tp2669
a(I2007
I1335
I2670
tp2670
a(I2007
I1335
I2671
tp2671
a(I2008
I1336
I2672
tp2672
a(I2008
I1336
I2673
tp2673
a(I2009
I1337
I2674
tp2674
a(I2009
I1337
I2675
tp2675
a(I2010
I1338
I2676
tp2676
a(I2010
I1338
I2677
tp2677
a(I2011
I1339
I2678
tp2678
a(I2011
I1339
I2679
tp2679
a(I2012
I1340
I2680
tp2680
a(I2012
I1340
I2681
tp2681
a(I2013
I1341
I2682
tp2682
a(I2013
I1341
I2683
tp2683
a(I2014
I1342
I2684
tp2684
a(I2014
I1342
I2685
tp2685
a(I2015
I1343
I2686
tp2686
a(I2015
I1343
I2687
tp2687
a(I2016
I1344
I2688
tp2688
a(I2016
I1344
I2689
tp2689
a(I2017
I1345
I2690
tp2690
a(I2017
I1345
I2691
tp2691
a(I2018
I1346
I2692
tp2692
a(I2018
I1346
I2693
tp2693
a(I2019
I1347
I2694
tp2694
a(I2019
I1347
I2695
tp2695
a(I2020
I1348
I2696
tp2696
a(I2020
I1348
I2697
tp2697
a(I2021
I1349
I2698
tp2698
a(I2021
I1349
I2699
tp2699
a(I2022
I1350
I2700
tp2700
a(I2022
I1350
I2701
tp2701
a(I2023
I1351
I2702
tp2702
a(I2023
I1351
I2703
tp2703
a(I2024
I1352
I2704
tp2704
a(I2024
I1352
I2705
tp2705
a(I2025
I1353
I2706
tp2706
a(I2025
I1353
I2707
tp2707
a(I2026
I1354
I2708
tp2708
a(I2026
I1354
I2709
tp2709
a(I2027
I1355
I2710
tp2710
a(I2027
I1355
I2711
tp2711
a(I2028
I1356
I2712
tp2712
a(I2028
I1356
I2713
tp2713
a(I2029
I1357
I2714
tp2714
a(I2029
I1357
I2715
tp2715
a(I2030
I1358
I2716
tp2716
a(I2030
I1358
I2717
tp2717
a(I2031
I1359
I2718
tp2718
a(I2031
I1359
I2719
tp2719
a(I2032
I1360
I2720
tp2720
a(I2032
I1360
I2721
tp2721
a(I2033
I1361
I2722
tp2722
a(I2033
I1361
I2723
tp2723
a(I2034
I1362
I2724
tp2724
a(I2034
I1362
I2725
tp2725
a(I2035
I1363
I2726
tp2726
a(I2035
I1363
I2727
tp2727
a(I2036
I1364
I2728
tp2728
a(I2036
I1364
I2729
tp2729
a(I2037
I1365
I2730
tp2730
a(I2037
I1365
I2731
tp2731
a(I2038
I1366
I2732
tp2732
a(I2038
I1366
I2733
tp2733
a(I2039
I1367
I2734
tp2734
a(I2039
I1367
I2735
tp2735
a(I2040
I1368
I2736
tp2736
a(I2040
I1368
I2737
tp2737
a(I2041
I1369
I2738
tp2738
a(I2041
I1369
I2739
tp2739
a(I2042
I1370
I2740
tp2740
a(I2042
I1370
I2741
tp2741
a(I2043
I1371
I2742
tp2742
a(I2043
I1371
I2743
tp2743
a(I2044
I1372
I2744
tp2744
a(I2044
I1372
I2745
tp2745
a(I2045
I1373
I2746
tp2746
a(I2045
I1373
I2747
tp2747
a(I2046
I1374
I2748
tp2748
a(I2046
I1374
I2749
tp2749
a(I2047
I1375
I2750
tp2750
a(I2047
I1375
I2751
tp2751
a(I2048
I1376
I2752
tp2752
a(I2048
I1376
I2753
tp2753
a(I2049
I1377
I2754
tp2754
a(I2049
I1377
I2755
tp2755
a(I2050
I1378
I2756
tp2756
a(I2050
I1378
I2757
tp2757
a(I2051
I1379
I2758
tp2758
a(I2051
I1379
I2759
tp2759
a(I2052
I1380
I2760
tp2760
a(I2052
I1380
I2761
tp2761
a(I2053
I1381
I2762
tp2762
a(I2053
I1381
I2763
tp2763
a(I2054
I1382
I2764
tp2764
a(I2054
I1382
I2765
tp2765
a(I2055
I1383
I2766
tp2766
a(I2055
I1383
I2767
tp2767
a(I2056
I1384
I2768
tp2768
a(I2056
I1384
I2769
tp2769
a(I2057
I1385
I2770
tp2770
a(I2057
I1385
I2771
tp2771
a(I2058
I1386
I2772
tp2772
a(I2058
I1386
I2773
tp2773
a(I2059
I1387
I2774
tp2774
a(I2059
I1387
I2775
tp2775
a(I2060
I1388
I2776
tp2776
a(I2060
I1388
I2777
tp2777
a(I2061
I1389
I2778
tp2778
a(I2061
I1389
I2779
tp2779
a(I2062
I1390
I2780
tp2780
a(I2062
I1390
I2781
tp2781
a(I2063
I1391
I2782
tp2782
a(I2063
I1391
I2783
tp2783
a(I2064
I1392
I2784
tp2784
a(I2064
I1392
I2785
tp2785
a(I2065
I1393
I2786
tp2786
a(I2065
I1393
I2787
tp2787
a(I2066
I1394
I2788
tp2788
a(I2066
I1394
I2789
tp2789
a(I2067
I1395
I2790
tp2790
a(I2067
I1395
I2791
tp2791
a(I2068
I1396
I2792
tp2792
a(I2068
I1396
I2793
tp2793
a(I2069
I1397
I2794
tp2794
a(I2069
I1397
I2795
tp2795
a(I2070
I1398
I2796
tp2796
a(I2070
I1398
I2797
tp2797
a(I2071
I1399
I2798
tp2798
a(I2071
I1399
I2799
tp2799
a(I2072
I1400
I2800
tp2800
a(I2072
I1400
I2801
tp2801
a(I2073
I1401
I2802
tp2802
a(I2073
I1401
I2803
tp2803
a(I2074
I1402
I2804
tp2804
a(I2074
I1402
I2805
tp2805
a(I2075
I1403
I2806
tp2806
a(I2075
I1403
I2807
tp2807
a(I2076
I1404
I2808
tp2808
a(I2076
I1404
I2809
tp2809
a(I2077
I1405
I2810
tp2810
a(I2077
I1405
I2811
tp2811
a(I2078
I1406
I2812
tp2812
a(I2078
I1406
I2813
tp2813
a(I2079
I1407
I2814
tp2814
a(I2079
I1407
I2815
tp2815
a(I2080
I1408
I2816
tp2816
a(I2080
I1408
I2817
tp2817
a(I2081
I1409
I2818
tp2818
a(I2081
I1409
I2819
tp2819
a(I2082
I1410
I2820
tp2820
a(I2082
I1410
I2821
tp2821
a(I2083
I1411
I2822
tp2822
a(I2083
I1411
I2823
tp2823
a(I2084
I1412
I2824
tp2824
a(I2084
I1412
I2825
tp2825
a(I2085
I1413
I2826
tp2826
a(I2085
I1413
I2827
tp2827
a(I2086
I1414
I2828
tp2828
a(I2086
I1414
I2829
tp2829
a(I2087
I1415
I2830
tp2830
a(I2087
I1415
I2831
tp2831
a(I2088
I1416
I2832
tp2832
a(I2088
I1416
I2833
tp2833
a(I2089
I1417
I2834
tp2834
a(I2089
I1417
I2835
tp2835
a(I2090
I1418
I2836
tp2836
a(I2090
I1418
I2837
tp2837
a(I2091
I1419
I2838
tp2838
a(I2091
I1419
I2839
tp2839
a(I2092
I1420
I2840
tp2840
a(I2092
I1420
I2841
tp2841
a(I2093
I1421
I2842
tp2842
a(I2093
I1421
I2843
tp2843
a(I2094
I1422
I2844
tp2844
a(I2094
I1422
I2845
tp2845
a(I2095
I1423
I2846
tp2846
a(I2095
I1423
I2847
tp2847
a(I2096
I1424
I2848
tp2848
a(I2096
I1424
I2849
tp2849
a(I2097
I1425
I2850
tp2850
a(I2097
I1425
I2851
tp2851
a(I2098
I1426
I2852
tp2852
a(I2098
I1426
I2853
tp2853
a(I2099
I1427
I2854
tp2854
a(I2099
I1427
I2855
tp2855
a(I2100
I1428
I2856
tp2856
a(I2100
I1428
I2857
tp2857
a(I2101
I1429
I2858
tp2858
a(I2101
I1429
I2859
tp2859
a(I2102
I1430
I2860
tp2860
a(I2102
I1430
I2861
tp2861
a(I2103
I1431
I2862
tp2862
a(I2103
I1431
I2863
tp2863
a(I2104
I1432
I2864
tp2864
a(I2104
I1432
I2865
tp2865
a(I2105
I1433
I2866
tp2866
a(I2105
I1433
I2867
tp2867
a(I2106
I1434
I2868
tp2868
a(I2106
I1434
I2869
tp2869
a(I2107
I1435
I2870
tp2870
a(I2107
I1435
I2871
tp2871
a(I2108
I1436
I2872
tp2872
a(I2108
I1436
I2873
tp2873
a(I2109
I1437
I2874
tp2874
a(I2109
I1437
I2875
tp2875
a(I2110
I1438
I2876
tp2876
a(I2110
I1438
I2877
tp2877
a(I2111
I1439
I2878
tp2878
a(I2111
I1439
I2879
tp2879
a(I2112
I1440
I2880
tp2880
a(I2112
I1440
I2881
tp2881
a(I2113
I1441
I2882
tp2882
a(I2113
I1441
I2883
tp2883
a(I2114
I1442
I2884
tp2884
a(I2114
I1442
I2885
tp2885
a(I2115
I1443
I2886
tp2886
a(I2115
I1443
I2887
tp2887
a(I2116
I1444
I2888
tp2888
a(I2116
I1444
I2889
tp2889
a(I2117
I1445
I2890
tp2890
a(I2117
I1445
I2891
tp2891
a(I2118
I1446
I2892
tp2892
a(I2118
I1446
I2893
tp2893
a(I2119
I1447
I2894
tp2894
a(I2119
I1447
I2895
tp2895
a(I2120
I1448
I2896
tp2896
a(I2120
I1448
I2897
tp2897
a(I2121
I1449
I2898
tp2898
a(I2121
I1449
I2899
tp2899
a(I2122
I1450
I2900
tp2900
a(I2122
I1450
I2901
tp2901
a(I2123
I1451
I2902
tp2902
a(I2123
I1451
I2903
tp2903
a(I2124
I1452
I2904
tp2904
a(I2124
I1452
I2905
tp2905
a(I2125
I1453
I2906
tp2906
a(I2125
I1453
I2907
tp2907
a(I2126
I1454
I2908
tp2908
a(I2126
I1454
I2909
tp2909
a(I2127
I1455
I2910
tp2910
a(I2127
I1455
I2911
tp2911
a(I2128
I1456
I2912
tp2912
a(I2128
I1456
I2913
tp2913
a(I2129
I1457
I2914
tp2914
a(I2129
I1457
I2915
tp2915
a(I2130
I1458
I2916
tp2916
a(I2130
I1458
I2917
tp2917
a(I2131
I1459
I2918
tp2918
a(I2131
I1459
I2919
tp2919
a(I2132
I1460
I2920
tp2920
a(I2132
I1460
I2921
tp2921
a(I2133
I1461
I2922
tp2922
a(I2133
I1461
I2923
tp2923
a(I2134
I1462
I2924
tp2924
a(I2134
I1462
I2925
tp2925
a(I2135
I1463
I2926
tp2926
a(I2135
I1463
I2927
tp2927
a(I2136
I1464
I2928
tp2928
a(I2136
I1464
I2929
tp2929
a(I2137
I1465
I2930
tp2930
a(I2137
I1465
I2931
tp2931
a(I2138
I1466
I2932
tp2932
a(I2138
I1466
I2933
tp2933
a(I2139
I1467
I2934
tp2934
a(I2139
I1467
I2935
tp2935
a(I2140
I1468
I2936
tp2936
a(I2140
I1468
I2937
tp2937
a(I2141
I1469
I2938
tp2938
a(I2141
I1469
I2939
tp2939
a(I2142
I1470
I2940
tp2940
a(I2142
I1470
I2941
tp2941
a(I2143
I1471
I2942
tp2942
a(I2143
I1471
I2943
tp2943
a(I2144
I1472
I2944
tp2944
a(I2144
I1472
I2945
tp2945
a(I2145
I1473
I2946
tp2946
a(I2145
I1473
I2947
tp2947
a(I2146
I1474
I2948
tp2948
a(I2146
I1474
I2949
tp2949
a(I2147
I1475
I2950
tp2950
a(I2147
I1475
I2951
tp2951
a(I2148
I1476
I2952
tp2952
a(I2148
I1476
I2953
tp2953
a(I2149
I1477
I2954
tp2954
a(I2149
I1477
I2955
tp2955
a(I2150
I1478
I2956
tp2956
a(I2150
I1478
I2957
tp2957
a(I2151
I1479
I2958
tp2958
a(I2151
I1479
I2959
tp2959
a(I2152
I1480
I2960
tp2960
a(I2152
I1480
I2961
tp2961
a(I2153
I1481
I2962
tp2962
a(I2153
I1481
I2963
tp2963
a(I2154
I1482
I2964
tp2964
a(I2154
I1482
I2965
tp2965
a(I2155
I1483
I2966
tp2966
a(I2155
I1483
I2967
tp2967
a(I2156
I1484
I2968
tp2968
a(I2156
I1484
I2969
tp2969
a(I2157
I1485
I2970
tp2970
a(I2157
I1485
I2971
tp2971
a(I2158
I1486
I2972
tp2972
a(I2158
I1486
I2973
tp2973
a(I2159
I1487
I2974
tp2974
a(I2159
I1487
I2975
tp2975
a(I2160
I1488
I2976
tp2976
a(I2160
I1488
I2977
tp2977
a(I2161
I1489
I2978
tp2978
a(I2161
I1489
I2979
tp2979
a(I2162
I1490
I2980
tp2980
a(I2162
I1490
I2981
tp2981
a(I2163
I1491
I2982
tp2982
a(I2163
I1491
I2983
tp2983
a(I2164
I1492
I2984
tp2984
a(I2164
I1492
I2985
tp2985
a(I2165
I1493
I2986
tp2986
a(I2165
I1493
I2987
tp2987
a(I2166
I1494
I2988
tp2988
a(I2166
I1494
I2989
tp2989
a(I2167
I1495
I2990
tp2990
a(I2167
I1495
I2991
tp2991
a(I2168
I1496
I2992
tp2992
a(I2168
I1496
I2993
tp2993
a(I2169
I1497
I2994
tp2994
a(I2169
I1497
I2995
tp2995
a(I2170
I1498
I2996
tp2996
a(I2170
I1498
I2997
tp2997
a(I2171
I1499
I2998
tp2998
a(I2171
I1499
I2999
tp2999
a(I2172
I1500
I3000
tp3000
a(I2172
I1500
I3001
tp3001
a(I2173
I1501
I3002
tp3002
a(I2173
I1501
I3003
tp3003
a(I2174
I1502
I3004
tp3004
a(I2174
I1502
I3005
tp3005
a(I2175
I1503
I3006
tp3006
a(I2175
I1503
I3007
tp3007
a(I2176
I1504
I3008
tp3008
a(I2176
I1504
I3009
tp3009
a(I2177
I1505
I3010
tp3010
a(I2177
I1505
I3011
tp3011
a(I2178
I1506
I3012
tp3012
a(I2178
I1506
I3013
tp3013
a(I2179
I1507
I3014
tp3014
a(I2179
I1507
I3015
tp3015
a(I2180
I1508
I3016
tp3016
a(I2180
I1508
I3017
tp3017
a(I2181
I1509
I3018
tp3018
a(I2181
I1509
I3019
tp3019
a(I2182
I1510
I3020
tp3020
a(I2182
I1510
I3021
tp3021
a(I2183
I1511
I3022
tp3022
a(I2183
I1511
I3023
tp3023
a(I2184
I1512
I3024
tp3024
a(I2184
I1512
I3025
tp3025
a(I2185
I1513
I3026
tp3026
a(I2185
I1513
I3027
tp3027
a(I2186
I1514
I3028
tp3028
a(I2186
I1514
I3029
tp3029
a(I2187
I1515
I3030
tp3030
a(I2187
I1515
I3031
tp3031
a(I2188
I1516
I3032
tp3032
a(I2188
I1516
I3033
tp3033
a(I2189
I1517
I3034
tp3034
a(I2189
I1517
I3035
tp3035
a(I2190
I1518
I3036
tp3036
a(I2190
I1518
I3037
tp3037
a(I2191
I1519
I3038
tp3038
a(I2191
I1519
I3039
tp3039
a(I2192
I1520
I3040
tp3040
a(I2192
I1520
I3041
tp3041
a(I2193
I1521
I3042
tp3042
a(I2193
I1521
I3043
tp3043
a(I2194
I1522
I3044
tp3044
a(I2194
I1522
I3045
tp3045
a(I2195
I1523
I3046
tp3046
a(I2195
I1523
I3047
tp3047
a(I2196
I1524
I3048
tp3048
a(I2196
I1524
I3049
tp3049
a(I2197
I1525
I3050
tp3050
a(I2197
I1525
I3051
tp3051
a(I2198
I1526
I3052
tp3052
a(I2198
I1526
I3053
tp3053
a(I2199
I1527
I3054
tp3054
a(I2199
I1527
I3055
tp3055
a(I2200
I1528
I3056
tp3056
a(I2200
I1528
I3057
tp3057
a(I2201
I1529
I3058
tp3058
a(I2201
I1529
I3059
tp3059
a(I2202
I1530
I3060
tp3060
a(I2202
I1530
I3061
tp3061
a(I2203
I1531
I3062
tp3062
a(I2203
I1531
I3063
tp3063
a(I2204
I1532
I3064
tp3064
a(I2204
I1532
I3065
tp3065
a(I2205
I1533
I3066
tp3066
a(I2205
I1533
I3067
tp3067
a(I2206
I1534
I3068
tp3068
a(I2206
I1534
I3069
tp3069
a(I2207
I1535
I3070
tp3070
a(I2207
I1535
I3071
tp3071
a(I2208
I1536
I3072
tp3072
a(I2208
I1536
I3073
tp3073
a(I2209
I1537
I3074
tp3074
a(I2209
I1537
I3075
tp3075
a(I2210
I1538
I3076
tp3076
a(I2210
I1538
I3077
tp3077
a(I2211
I1539
I3078
tp3078
a(I2211
I1539
I3079
tp3079
a(I2212
I1540
I3080
tp3080
a(I2212
I1540
I3081
tp3081
a(I2213
I1541
I3082
tp3082
a(I2213
I1541
I3083
tp3083
a(I2214
I1542
I3084
tp3084
a(I2214
I1542
I3085
tp3085
a(I2215
I1543
I3086
tp3086
a(I2215
I1543
I3087
tp3087
a(I2216
I1544
I3088
tp3088
a(I2216
I1544
I3089
tp3089
a(I2217
I1545
I3090
tp3090
a(I2217
I1545
I3091
tp3091
a(I2218
I1546
I3092
tp3092
a(I2218
I1546
I3093
tp3093
a(I2219
I1547
I3094
tp3094
a(I2219
I1547
I3095
tp3095
a(I2220
I1548
I3096
tp3096
a(I2220
I1548
I3097
tp3097
a(I2221
I1549
I3098
tp3098
a(I2221
I1549
I3099
tp3099
a(I2222
I1550
I3100
tp3100
a(I2222
I1550
I3101
tp3101
a(I2223
I1551
I3102
tp3102
a(I2223
I1551
I3103
tp3103
a(I2224
I1552
I3104
tp3104
a(I2224
I1552
I3105
tp3105
a(I2225
I1553
I3106
tp3106
a(I2225
I1553
I3107
tp3107
a(I2226
I1554
I3108
tp3108
a(I2226
I1554
I3109
tp3109
a(I2227
I1555
I3110
tp3110
a(I2227
I1555
I3111
tp3111
a(I2228
I1556
I3112
tp3112
a(I2228
I1556
I3113
tp3113
a(I2229
I1557
I3114
tp3114
a(I2229
I1557
I3115
tp3115
a(I2230
I1558
I3116
tp3116
a(I2230
I1558
I3117
tp3117
a(I2231
I1559
I3118
tp3118
a(I2231
I1559
I3119
tp3119
a(I2232
I1560
I3120
tp3120
a(I2232
I1560
I3121
tp3121
a(I2233
I1561
I3122
tp3122
a(I2233
I1561
I3123
tp3123
a(I2234
I1562
I3124
tp3124
a(I2234
I1562
I3125
tp3125
a(I2235
I1563
I3126
tp3126
a(I2235
I1563
I3127
tp3127
a(I2236
I1564
I3128
tp3128
a(I2236
I1564
I3129
tp3129
a(I2237
I1565
I3130
tp3130
a(I2237
I1565
I3131
tp3131
a(I2238
I1566
I3132
tp3132
a(I2238
I1566
I3133
tp3133
a(I2239
I1567
I3134
tp3134
a(I2239
I1567
I3135
tp3135
a(I2240
I1568
I3136
tp3136
a(I2240
I1568
I3137
tp3137
a(I2241
I1569
I3138
tp3138
a(I2241
I1569
I3139
tp3139
a(I2242
I1570
I3140
tp3140
a(I2242
I1570
I3141
tp3141
a(I2243
I1571
I3142
tp3142
a(I2243
I1571
I3143
tp3143
a(I2244
I1572
I3144
tp3144
a(I2244
I1572
I3145
tp3145
a(I2245
I1573
I3146
tp3146
a(I2245
I1573
I3147
tp3147
a(I2246
I1574
I3148
tp3148
a(I2246
I1574
I3149
tp3149
a(I2247
I1575
I3150
tp3150
a(I2247
I1575
I3151
tp3151
a(I2248
I1576
I3152
tp3152
a(I2248
I1576
I3153
tp3153
a(I2249
I1577
I3154
tp3154
a(I2249
I1577
I3155
tp3155
a(I2250
I1578
I3156
tp3156
a(I2250
I1578
I3157
tp3157
a(I2251
I1579
I3158
tp3158
a(I2251
I1579
I3159
tp3159
a(I2252
I1580
I3160
tp3160
a(I2252
I1580
I3161
tp3161
a(I2253
I1581
I3162
tp3162
a(I2253
I1581
I3163
tp3163
a(I2254
I1582
I3164
tp3164
a(I2254
I1582
I3165
tp3165
a(I2255
I1583
I3166
tp3166
a(I2255
I1583
I3167
tp3167
a(I2256
I1584
I3168
tp3168
a(I2256
I1584
I3169
tp3169
a(I2257
I1585
I3170
tp3170
a(I2257
I1585
I3171
tp3171
a(I2258
I1586
I3172
tp3172
a(I2258
I1586
I3173
tp3173
a(I2259
I1587
I3174
tp3174
a(I2259
I1587
I3175
tp3175
a(I2260
I1588
I3176
tp3176
a(I2260
I1588
I3177
tp3177
a(I2261
I1589
I3178
tp3178
a(I2261
I1589
I3179
tp3179
a(I2262
I1590
I3180
tp3180
a(I2262
I1590
I3181
tp3181
a(I2263
I1591
I3182
tp3182
a(I2263
I1591
I3183
tp3183
a(I2264
I1592
I3184
tp3184
a(I2264
I1592
I3185
tp3185
a(I2265
I1593
I3186
tp3186
a(I2265
I1593
I3187
tp3187
a(I2266
I1594
I3188
tp3188
a(I2266
I1594
I3189
tp3189
a(I2267
I1595
I3190
tp3190
a(I2267
I1595
I3191
tp3191
a(I2268
I1596
I3192
tp3192
a(I2268
I1596
I3193
tp3193
a(I2269
I1597
I3194
tp3194
a(I2269
I1597
I3195
tp3195
a(I2270
I1598
I3196
tp3196
a(I2270
I1598
I3197
tp3197
a(I2271
I1599
I3198
tp3198
a(I2271
I1599
I3199
tp3199
a(I2272
I1600
I3200
tp3200
a(I2272
I1600
I3201
tp3201
a(I2273
I1601
I3202
tp3202
a(I2273
I1601
I3203
tp3203
a(I2274
I1602
I3204
tp3204
a(I2274
I1602
I3205
tp3205
a(I2275
I1603
I3206
tp3206
a(I2275
I1603
I3207
tp3207
a(I2276
I1604
I3208
tp3208
a(I2276
I1604
I3209
tp3209
a(I2277
I1605
I3210
tp3210
a(I2277
I1605
I3211
tp3211
a(I2278
I1606
I3212
tp3212
a(I2278
I1606
I3213
tp3213
a(I2279
I1607
I3214
tp3214
a(I2279
I1607
I3215
tp3215
a(I2280
I1608
I3216
tp3216
a(I2280
I1608
I3217
tp3217
a(I2281
I1609
I3218
tp3218
a(I2281
I1609
I3219
tp3219
a(I2282
I1610
I3220
tp3220
a(I2282
I1610
I3221
tp3221
a(I2283
I1611
I3222
tp3222
a(I2283
I1611
I3223
tp3223
a(I2284
I1612
I3224
tp3224
a(I2284
I1612
I3225
tp3225
a(I2285
I1613
I3226
tp3226
a(I2285
I1613
I3227
tp3227
a(I2286
I1614
I3228
tp3228
a(I2286
I1614
I3229
tp3229
a(I2287
I1615
I3230
tp3230
a(I2287
I1615
I3231
tp3231
a(I2288
I1616
I3232
tp3232
a(I2288
I1616
I3233
tp3233
a(I2289
I1617
I3234
tp3234
a(I2289
I1617
I3235
tp3235
a(I2290
I1618
I3236
tp3236
a(I2290
I1618
I3237
tp3237
a(I2291
I1619
I3238
tp3238
a(I2291
I1619
I3239
tp3239
a(I2292
I1620
I3240
tp3240
a(I2292
I1620
I3241
tp3241
a(I2293
I1621
I3242
tp3242
a(I2293
I1621
I3243
tp3243
a(I2294
I1622
I3244
tp3244
a(I2294
I1622
I3245
tp3245
a(I2295
I1623
I3246
tp3246
a(I2295
I1623
I3247
tp3247
a(I2296
I1624
I3248
tp3248
a(I2296
I1624
I3249
tp3249
a(I2297
I1625
I3250
tp3250
a(I2297
I1625
I3251
tp3251
a(I2298
I1626
I3252
tp3252
a(I2298
I1626
I3253
tp3253
a(I2299
I1627
I3254
tp3254
a(I2299
I1627
I3255
tp3255
a(I2300
I1628
I3256
tp3256
a(I2300
I1628
I3257
tp3257
a(I2301
I1629
I3258
tp3258
a(I2301
I1629
I3259
tp3259
a(I2302
I1630
I3260
tp3260
a(I2302
I1630
I3261
tp3261
a(I2303
I1631
I3262
tp3262
a(I2303
I1631
I3263
tp3263
a(I2304
I1632
I3264
tp3264
a(I2304
I1632
I3265
tp3265
a(I2305
I1633
I3266
tp3266
a(I2305
I1633
I3267
tp3267
a(I2306
I1634
I3268
tp3268
a(I2306
I1634
I3269
tp3269
a(I2307
I1635
I3270
tp3270
a(I2307
I1635
I3271
tp3271
a(I2308
I1636
I3272
tp3272
a(I2308
I1636
I3273
tp3273
a(I2309
I1637
I3274
tp3274
a(I2309
I1637
I3275
tp3275
a(I2310
I1638
I3276
tp3276
a(I2310
I1638
I3277
tp3277
a(I2311
I1639
I3278
tp3278
a(I2311
I1639
I3279
tp3279
a(I2312
I1640
I3280
tp3280
a(I2312
I1640
I3281
tp3281
a(I2313
I1641
I3282
tp3282
a(I2313
I1641
I3283
tp3283
a(I2314
I1642
I3284
tp3284
a(I2314
I1642
I3285
tp3285
a(I2315
I1643
I3286
tp3286
a(I2315
I1643
I3287
tp3287
a(I2316
I1644
I3288
tp3288
a(I2316
I1644
I3289
tp3289
a(I2317
I1645
I3290
tp3290
a(I2317
I1645
I3291
tp3291
a(I2318
I1646
I3292
tp3292
a(I2318
I1646
I3293
tp3293
a(I2319
I1647
I3294
tp3294
a(I2319
I1647
I3295
tp3295
a(I2320
I1648
I3296
tp3296
a(I2320
I1648
I3297
tp3297
a(I2321
I1649
I3298
tp3298
a(I2321
I1649
I3299
tp3299
a(I2322
I1650
I3300
tp3300
a(I2322
I1650
I3301
tp3301
a(I2323
I1651
I3302
tp3302
a(I2323
I1651
I3303
tp3303
a(I2324
I1652
I3304
tp3304
a(I2324
I1652
I3305
tp3305
a(I2325
I1653
I3306
tp3306
a(I2325
I1653
I3307
tp3307
a(I2326
I1654
I3308
tp3308
a(I2326
I1654
I3309
tp3309
a(I2327
I1655
I3310
tp3310
a(I2327
I1655
I3311
tp3311
a(I2328
I1656
I3312
tp3312
a(I2328
I1656
I3313
tp3313
a(I2329
I1657
I3314
tp3314
a(I2329
I1657
I3315
tp3315
a(I2330
I1658
I3316
tp3316
a(I2330
I1658
I3317
tp3317
a(I2331
I1659
I3318
tp3318
a(I2331
I1659
I3319
tp3319
a(I2332
I1660
I3320
tp3320
a(I2332
I1660
I3321
tp3321
a(I2333
I1661
I3322
tp3322
a(I2333
I1661
I3323
tp3323
a(I2334
I1662
I3324
tp3324
a(I2334
I1662
I3325
tp3325
a(I2335
I1663
I3326
tp3326
a(I2335
I1663
I3327
tp3327
a(I2336
I1664
I3328
tp3328
a(I2336
I1664
I3329
tp3329
a(I2337
I1665
I3330
tp3330
a(I2337
I1665
I3331
tp3331
a(I2338
I1666
I3332
tp3332
a(I2338
I1666
I3333
tp3333
a(I2339
I1667
I3334
tp3334
a(I2339
I1667
I3335
tp3335
a(I2340
I1668
I3336
tp3336
a(I2340
I1668
I3337
tp3337
a(I2341
I1669
I3338
tp3338
a(I2341
I1669
I3339
tp3339
a(I2342
I1670
I3340
tp3340
a(I2342
I1670
I3341
tp3341
a(I2343
I1671
I3342
tp3342
a(I2343
I1671
I3343
tp3343
a(I2344
I1672
I3344
tp3344
a(I2344
I1672
I3345
tp3345
a(I2345
I1673
I3346
tp3346
a(I2345
I1673
I3347
tp3347
a(I2346
I1674
I3348
tp3348
a(I2346
I1674
I3349
tp3349
a(I2347
I1675
I3350
tp3350
a(I2347
I1675
I3351
tp3351
a(I2348
I1676
I3352
tp3352
a(I2348
I1676
I3353
tp3353
a(I2349
I1677
I3354
tp3354
a(I2349
I1677
I3355
tp3355
a(I2350
I1678
I3356
tp3356
a(I2350
I1678
I3357
tp3357
a(I2351
I1679
I3358
tp3358
a(I2351
I1679
I3359
tp3359
a(I2352
I1680
I3360
tp3360
a(I2352
I1680
I3361
tp3361
a(I2353
I1681
I3362
tp3362
a(I2353
I1681
I3363
tp3363
a(I2354
I1682
I3364
tp3364
a(I2354
I1682
I3365
tp3365
a(I2355
I1683
I3366
tp3366
a(I2355
I1683
I3367
tp3367
a(I2356
I1684
I3368
tp3368
a(I2356
I1684
I3369
tp3369
a(I2357
I1685
I3370
tp3370
a(I2357
I1685
I3371
tp3371
a(I2358
I1686
I3372
tp3372
a(I2358
I1686
I3373
tp3373
a(I2359
I1687
I3374
tp3374
a(I2359
I1687
I3375
tp3375
a(I2360
I1688
I3376
tp3376
a(I2360
I1688
I3377
tp3377
a(I2361
I1689
I3378
tp3378
a(I2361
I1689
I3379
tp3379
a(I2362
I1690
I3380
tp3380
a(I2362
I1690
I3381
tp3381
a(I2363
I1691
I3382
tp3382
a(I2363
I1691
I3383
tp3383
a(I2364
I1692
I3384
tp3384
a(I2364
I1692
I3385
tp3385
a(I2365
I1693
I3386
tp3386
a(I2365
I1693
I3387
tp3387
a(I2366
I1694
I3388
tp3388
a(I2366
I1694
I3389
tp3389
a(I2367
I1695
I3390
tp3390
a(I2367
I1695
I3391
tp3391
a(I2368
I1696
I3392
tp3392
a(I2368
I1696
I3393
tp3393
a(I2369
I1697
I3394
tp3394
a(I2369
I1697
I3395
tp3395
a(I2370
I1698
I3396
tp3396
a(I2370
I1698
I3397
tp3397
a(I2371
I1699
I3398
tp3398
a(I2371
I1699
I3399
tp3399
a(I2372
I1700
I3400
tp3400
a(I2372
I1700
I3401
tp3401
a(I2373
I1701
I3402
tp3402
a(I2373
I1701
I3403
tp3403
a(I2374
I1702
I3404
tp3404
a(I2374
I1702
I3405
tp3405
a(I2375
I1703
I3406
tp3406
a(I2375
I1703
I3407
tp3407
a(I2376
I1704
I3408
tp3408
a(I2376
I1704
I3409
tp3409
a(I2377
I1705
I3410
tp3410
a(I2377
I1705
I3411
tp3411
a(I2378
I1706
I3412
tp3412
a(I2378
I1706
I3413
tp3413
a(I2379
I1707
I3414
tp3414
a(I2379
I1707
I3415
tp3415
a(I2380
I1708
I3416
tp3416
a(I2380
I1708
I3417
tp3417
a(I2381
I1709
I3418
tp3418
a(I2381
I1709
I3419
tp3419
a(I2382
I1710
I3420
tp3420
a(I2382
I1710
I3421
tp3421
a(I2383
I1711
I3422
tp3422
a(I2383
I1711
I3423
tp3423
a(I2384
I1712
I3424
tp3424
a(I2384
I1712
I3425
tp3425
a(I2385
I1713
I3426
tp3426
a(I2385
I1713
I3427
tp3427
a(I2386
I1714
I3428
tp3428
a(I2386
I1714
I3429
tp3429
a(I2387
I1715
I3430
tp3430
a(I2387
I1715
I3431
tp3431
a(I2388
I1716
I3432
tp3432
a(I2388
I1716
I3433
tp3433
a(I2389
I1717
I3434
tp3434
a(I2389
I1717
I3435
tp3435
a(I2390
I1718
I3436
tp3436
a(I2390
I1718
I3437
tp3437
a(I2391
I1719
I3438
tp3438
a(I2391
I1719
I3439
tp3439
a(I2392
I1720
I3440
tp3440
a(I2392
I1720
I3441
tp3441
a(I2393
I1721
I3442
tp3442
a(I2393
I1721
I3443
tp3443
a(I2394
I1722
I3444
tp3444
a(I2394
I1722
I3445
tp3445
a(I2395
I1723
I3446
tp3446
a(I2395
I1723
I3447
tp3447
a(I2396
I1724
I3448
tp3448
a(I2396
I1724
I3449
tp3449
a(I2397
I1725
I3450
tp3450
a(I2397
I1725
I3451
tp3451
a(I2398
I1726
I3452
tp3452
a(I2398
I1726
I3453
tp3453
a(I2399
I1727
I3454
tp3454
a(I2399
I1800
I3455
tp3455
a.